((lp0
V31.2
p1
aV38.6
p2
aV35.2
p3
aV45.1
p4
aV42.5
p5
aV21.2
p6
aV21.7
p7
aV13.2
p8
aV24.0
p9
aV21.7
p10
aV24.8
p11
aV36.0
p12
aV30.2
p13
aV22.0
p14
aV29.5
p15
aV34.0
p16
aV22.3
p17
aV32.7
p18
aV39.4
p19
aV37.2
p20
aV30.5
p21
aV34.0
p22
aV32.4
p23
aV35.1
p24
aV37.6
p25
aV26.6
p26
aV24.4
p27
aV23.5
p28
aV26.3
p29
aV33.9
p30
aV20.4
p31
aV27.5
p32
aV29.6
p33
aV19.3
p34
aV30.0
p35
aV33.2
p36
aV18.1
p37
aV29.0
p38
aV33.0
p39
aV28.9
p40
aV29.9
p41
aV28.4
p42
aV32.3
p43
aV17.6
p44
aV22.9
p45
aV20.5
p46
aV10.2
p47
aV19.4
p48
aV24.2
p49
aV22.0
p50
aV10.9
p51
aV20.1
p52
aV34.1
p53
aV29.3
p54
aV12.4
p55
aV27.7
p56
aV26.9
p57
aV23.7
p58
aV22.1
p59
aV26.7
p60
aV32.2
p61
aV28.4
p62
aV38.9
p63
aV32.9
p64
aV21.0
p65
aV26.8
p66
aV40.2
p67
aV44.9
p68
aV40.7
p69
aV46.4
p70
aV45.3
p71
aV37.1
p72
aV43.6
p73
aV44.1
p74
aV40.2
p75
aV47.9
p76
aV33.7
p77
aV33.5
p78
aV34.4
p79
aV34.9
p80
aV39.9
p81
aV30.5
p82
aV33.6
p83
aV39.1
p84
aV45.2
p85
aV44.9
p86
aV37.6
p87
aV33.5
p88
aV42.2
p89
aV42.8
p90
aV39.8
p91
aV49.9
p92
aV59.2
p93
aV52.0
p94
aV50.1
p95
aV46.7
p96
aV50.6
p97
aV43.0
p98
aV39.3
p99
aV43.0
p100
aV55.3
p101
aV51.3
p102
aV55.6
p103
aV59.3
p104
aV59.1
p105
aV56.5
p106
aV59.7
p107
aV66.0
p108
aV57.6
p109
aV50.6
p110
aV57.4
p111
aV58.8
p112
aV47.4
p113
aV43.4
p114
aV46.1
p115
aV52.0
p116
aV53.8
p117
aV57.2
p118
aV64.2
p119
aV52.4
p120
aV52.6
p121
aV53.9
p122
aV59.5
p123
aV66.5
p124
aV72.7
p125
aV65.3
p126
aV64.6
p127
aV64.2
p128
aV58.0
p129
aV66.3
p130
aV74.4
p131
aV74.9
p132
aV65.1
p133
aV59.7
p134
aV63.2
p135
aV65.2
p136
aV70.4
p137
aV63.6
p138
aV61.6
p139
aV62.0
p140
aV57.1
p141
aV61.8
p142
aV59.3
p143
aV65.7
p144
aV72.5
p145
aV75.2
p146
aV73.5
p147
aV73.4
p148
aV73.0
p149
aV73.1
p150
aV74.6
p151
aV57.4
p152
aV52.0
p153
aV58.2
p154
aV58.1
p155
aV59.5
p156
aV65.7
p157
aV65.3
p158
aV67.5
p159
aV73.3
p160
aV74.2
p161
aV80.2
p162
aV80.7
p163
aV80.5
p164
aV77.0
p165
aV70.3
p166
aV68.1
p167
aV73.9
p168
aV66.8
p169
aV73.2
p170
aV69.5
p171
aV75.0
p172
aV79.6
p173
aV84.4
p174
aV77.1
p175
aV76.8
p176
aV74.8
p177
aV69.0
p178
aV64.2
p179
aV71.3
p180
aV75.3
p181
aV76.4
p182
aV75.7
p183
aV73.5
p184
aV71.8
p185
aV75.1
p186
aV77.1
p187
aV79.5
p188
aV82.0
p189
aV73.8
p190
aV75.8
p191
aV78.6
p192
aV81.1
p193
aV80.4
p194
aV76.1
p195
aV75.9
p196
aV72.1
p197
aV73.5
p198
aV76.3
p199
aV84.3
p200
aV89.1
p201
aV86.0
p202
aV77.1
p203
aV77.1
p204
aV78.2
p205
aV78.1
p206
aV79.8
p207
aV79.9
p208
aV82.8
p209
aV86.3
p210
aV82.1
p211
aV81.1
p212
aV83.7
p213
aV81.0
p214
aV82.5
p215
aV83.1
p216
aV80.5
p217
aV76.3
p218
aV75.8
p219
aV74.7
p220
aV75.7
p221
aV74.5
p222
aV75.1
p223
aV77.3
p224
aV75.7
p225
aV78.9
p226
aV81.4
p227
aV82.8
p228
aV84.7
p229
aV83.4
p230
aV80.2
p231
aV81.0
p232
aV78.7
p233
aV76.6
p234
aV75.8
p235
aV78.5
p236
aV80.6
p237
aV76.9
p238
aV74.2
p239
aV73.1
p240
aV76.8
p241
aV79.1
p242
aV82.7
p243
aV82.6
p244
aV80.2
p245
aV82.6
p246
aV80.3
p247
aV72.9
p248
aV73.9
p249
aV77.8
p250
aV83.3
p251
aV81.1
p252
aV75.3
p253
aV72.4
p254
aV74.6
p255
aV72.6
p256
aV66.6
p257
aV73.2
p258
aV76.8
p259
aV78.0
p260
aV76.9
p261
aV73.9
p262
aV73.3
p263
aV65.4
p264
aV66.3
p265
aV67.6
p266
aV69.9
p267
aV68.5
p268
aV65.9
p269
aV62.2
p270
aV68.5
p271
aV74.7
p272
aV73.2
p273
aV59.4
p274
aV53.9
p275
aV51.6
p276
aV57.1
p277
aV57.2
p278
aV62.4
p279
aV64.6
p280
aV64.2
p281
aV66.9
p282
aV60.0
p283
aV59.7
p284
aV64.5
p285
aV66.1
p286
aV64.5
p287
aV58.5
p288
aV59.0
p289
aV52.9
p290
aV44.4
p291
aV43.5
p292
aV56.0
p293
aV65.5
p294
aV65.0
p295
aV60.0
p296
aV48.3
p297
aV59.3
p298
aV53.0
p299
aV52.2
p300
aV56.9
p301
aV67.6
p302
aV56.8
p303
aV49.0
p304
aV57.3
p305
aV60.2
p306
aV61.3
p307
aV61.5
p308
aV62.0
p309
aV68.3
p310
aV65.9
p311
aV53.5
p312
aV53.0
p313
aV56.0
p314
aV53.2
p315
aV55.2
p316
aV56.8
p317
aV47.8
p318
aV47.4
p319
aV58.8
p320
aV49.1
p321
aV50.5
p322
aV59.7
p323
aV58.9
p324
aV47.2
p325
aV52.1
p326
aV41.8
p327
aV39.2
p328
aV44.0
p329
aV48.1
p330
aV55.6
p331
aV57.2
p332
aV43.0
p333
aV39.8
p334
aV47.1
p335
aV48.1
p336
aV51.4
p337
aV46.9
p338
aV47.1
p339
aV47.1
p340
aV48.8
p341
aV45.3
p342
aV45.7
p343
aV55.0
p344
aV54.3
p345
aV59.0
p346
aV57.1
p347
aV53.7
p348
aV60.7
p349
aV50.0
p350
aV53.4
p351
aV51.1
p352
aV39.2
p353
aV39.8
p354
aV45.6
p355
aV56.8
p356
aV54.2
p357
aV64.0
p358
aV60.3
p359
aV54.5
p360
aV52.4
p361
aV44.8
p362
aV40.2
p363
aV41.8
p364
aV47.0
p365
a(lp366
ccopy_reg
_reconstructor
p367
(clxml.etree
_ElementStringResult
p368
c__builtin__
str
p369
S'0.00 IN'
p370
tp371
Rp372
(dp373
S'_parent'
p374
NsS'is_attribute'
p375
I00
sS'attrname'
p376
NsS'is_text'
p377
I00
sS'is_tail'
p378
I00
sbag367
(g368
g369
S'0.00 IN'
p379
tp380
Rp381
(dp382
g374
Nsg375
I00
sg376
Nsg377
I00
sg378
I00
sbag367
(g368
g369
S'0.00 IN'
p383
tp384
Rp385
(dp386
g374
Nsg375
I00
sg376
Nsg377
I00
sg378
I00
sbag367
(g368
g369
S'0.85 IN'
p387
tp388
Rp389
(dp390
g374
Nsg375
I00
sg376
Nsg377
I00
sg378
I00
sbag367
(g368
g369
S'0.13 IN'
p391
tp392
Rp393
(dp394
g374
Nsg375
I00
sg376
Nsg377
I00
sg378
I00
sbag367
(g368
g369
S'0.00 IN'
p395
tp396
Rp397
(dp398
g374
Nsg375
I00
sg376
Nsg377
I00
sg378
I00
sbag367
(g368
g369
S'0.05 IN'
p399
tp400
Rp401
(dp402
g374
Nsg375
I00
sg376
Nsg377
I00
sg378
I00
sbag367
(g368
g369
S'0.00 IN'
p403
tp404
Rp405
(dp406
g374
Nsg375
I00
sg376
Nsg377
I00
sg378
I00
sbag367
(g368
g369
S'0.00 IN'
p407
tp408
Rp409
(dp410
g374
Nsg375
I00
sg376
Nsg377
I00
sg378
I00
sbag367
(g368
g369
S'0.06 IN'
p411
tp412
Rp413
(dp414
g374
Nsg375
I00
sg376
Nsg377
I00
sg378
I00
sbag367
(g368
g369
S'0.00 IN'
p415
tp416
Rp417
(dp418
g374
Nsg375
I00
sg376
Nsg377
I00
sg378
I00
sbag367
(g368
g369
S'0.00 IN'
p419
tp420
Rp421
(dp422
g374
Nsg375
I00
sg376
Nsg377
I00
sg378
I00
sbag367
(g368
g369
S'0.39 IN'
p423
tp424
Rp425
(dp426
g374
Nsg375
I00
sg376
Nsg377
I00
sg378
I00
sbag367
(g368
g369
S'0.00 IN'
p427
tp428
Rp429
(dp430
g374
Nsg375
I00
sg376
Nsg377
I00
sg378
I00
sbag367
(g368
g369
S'0.00 IN'
p431
tp432
Rp433
(dp434
g374
Nsg375
I00
sg376
Nsg377
I00
sg378
I00
sbag367
(g368
g369
S'0.00 IN'
p435
tp436
Rp437
(dp438
g374
Nsg375
I00
sg376
Nsg377
I00
sg378
I00
sbag367
(g368
g369
S'0.00 IN'
p439
tp440
Rp441
(dp442
g374
Nsg375
I00
sg376
Nsg377
I00
sg378
I00
sbag367
(g368
g369
S'0.00 IN'
p443
tp444
Rp445
(dp446
g374
Nsg375
I00
sg376
Nsg377
I00
sg378
I00
sbag367
(g368
g369
S'1.98 IN'
p447
tp448
Rp449
(dp450
g374
Nsg375
I00
sg376
Nsg377
I00
sg378
I00
sbag367
(g368
g369
S'0.00 IN'
p451
tp452
Rp453
(dp454
g374
Nsg375
I00
sg376
Nsg377
I00
sg378
I00
sbag367
(g368
g369
S'0.00 IN'
p455
tp456
Rp457
(dp458
g374
Nsg375
I00
sg376
Nsg377
I00
sg378
I00
sbag367
(g368
g369
S'0.00 IN'
p459
tp460
Rp461
(dp462
g374
Nsg375
I00
sg376
Nsg377
I00
sg378
I00
sbag367
(g368
g369
S'0.00 IN'
p463
tp464
Rp465
(dp466
g374
Nsg375
I00
sg376
Nsg377
I00
sg378
I00
sbag367
(g368
g369
S'0.66 IN'
p467
tp468
Rp469
(dp470
g374
Nsg375
I00
sg376
Nsg377
I00
sg378
I00
sbag367
(g368
g369
S'0.07 IN'
p471
tp472
Rp473
(dp474
g374
Nsg375
I00
sg376
Nsg377
I00
sg378
I00
sbag367
(g368
g369
S'0.00 IN'
p475
tp476
Rp477
(dp478
g374
Nsg375
I00
sg376
Nsg377
I00
sg378
I00
sbag367
(g368
g369
S'0.45 IN'
p479
tp480
Rp481
(dp482
g374
Nsg375
I00
sg376
Nsg377
I00
sg378
I00
sbag367
(g368
g369
S'0.01 IN'
p483
tp484
Rp485
(dp486
g374
Nsg375
I00
sg376
Nsg377
I00
sg378
I00
sbag367
(g368
g369
S'0.00 IN'
p487
tp488
Rp489
(dp490
g374
Nsg375
I00
sg376
Nsg377
I00
sg378
I00
sbag367
(g368
g369
S'0.07 IN'
p491
tp492
Rp493
(dp494
g374
Nsg375
I00
sg376
Nsg377
I00
sg378
I00
sbag367
(g368
g369
S'0.01 IN'
p495
tp496
Rp497
(dp498
g374
Nsg375
I00
sg376
Nsg377
I00
sg378
I00
sbag367
(g368
g369
S'0.00 IN'
p499
tp500
Rp501
(dp502
g374
Nsg375
I00
sg376
Nsg377
I00
sg378
I00
sbag367
(g368
g369
S'0.84 IN'
p503
tp504
Rp505
(dp506
g374
Nsg375
I00
sg376
Nsg377
I00
sg378
I00
sbag367
(g368
g369
S'0.26 IN'
p507
tp508
Rp509
(dp510
g374
Nsg375
I00
sg376
Nsg377
I00
sg378
I00
sbag367
(g368
g369
S'0.00 IN'
p511
tp512
Rp513
(dp514
g374
Nsg375
I00
sg376
Nsg377
I00
sg378
I00
sbag367
(g368
g369
S'0.00 IN'
p515
tp516
Rp517
(dp518
g374
Nsg375
I00
sg376
Nsg377
I00
sg378
I00
sbag367
(g368
g369
S'0.00 IN'
p519
tp520
Rp521
(dp522
g374
Nsg375
I00
sg376
Nsg377
I00
sg378
I00
sbag367
(g368
g369
S'0.00 IN'
p523
tp524
Rp525
(dp526
g374
Nsg375
I00
sg376
Nsg377
I00
sg378
I00
sbag367
(g368
g369
S'0.01 IN'
p527
tp528
Rp529
(dp530
g374
Nsg375
I00
sg376
Nsg377
I00
sg378
I00
sbag367
(g368
g369
S'0.03 IN'
p531
tp532
Rp533
(dp534
g374
Nsg375
I00
sg376
Nsg377
I00
sg378
I00
sbag367
(g368
g369
S'0.04 IN'
p535
tp536
Rp537
(dp538
g374
Nsg375
I00
sg376
Nsg377
I00
sg378
I00
sbag367
(g368
g369
S'0.00 IN'
p539
tp540
Rp541
(dp542
g374
Nsg375
I00
sg376
Nsg377
I00
sg378
I00
sbag367
(g368
g369
S'0.00 IN'
p543
tp544
Rp545
(dp546
g374
Nsg375
I00
sg376
Nsg377
I00
sg378
I00
sbag367
(g368
g369
S'0.00 IN'
p547
tp548
Rp549
(dp550
g374
Nsg375
I00
sg376
Nsg377
I00
sg378
I00
sbag367
(g368
g369
S'0.00 IN'
p551
tp552
Rp553
(dp554
g374
Nsg375
I00
sg376
Nsg377
I00
sg378
I00
sbag367
(g368
g369
S'0.01 IN'
p555
tp556
Rp557
(dp558
g374
Nsg375
I00
sg376
Nsg377
I00
sg378
I00
sbag367
(g368
g369
S'0.00 IN'
p559
tp560
Rp561
(dp562
g374
Nsg375
I00
sg376
Nsg377
I00
sg378
I00
sbag367
(g368
g369
S'0.11 IN'
p563
tp564
Rp565
(dp566
g374
Nsg375
I00
sg376
Nsg377
I00
sg378
I00
sbag367
(g368
g369
S'0.02 IN'
p567
tp568
Rp569
(dp570
g374
Nsg375
I00
sg376
Nsg377
I00
sg378
I00
sbag367
(g368
g369
S'0.00 IN'
p571
tp572
Rp573
(dp574
g374
Nsg375
I00
sg376
Nsg377
I00
sg378
I00
sbag367
(g368
g369
S'0.00 IN'
p575
tp576
Rp577
(dp578
g374
Nsg375
I00
sg376
Nsg377
I00
sg378
I00
sbag367
(g368
g369
S'0.01 IN'
p579
tp580
Rp581
(dp582
g374
Nsg375
I00
sg376
Nsg377
I00
sg378
I00
sbag367
(g368
g369
S'0.71 IN'
p583
tp584
Rp585
(dp586
g374
Nsg375
I00
sg376
Nsg377
I00
sg378
I00
sbag367
(g368
g369
S'0.11 IN'
p587
tp588
Rp589
(dp590
g374
Nsg375
I00
sg376
Nsg377
I00
sg378
I00
sbag367
(g368
g369
S'0.00 IN'
p591
tp592
Rp593
(dp594
g374
Nsg375
I00
sg376
Nsg377
I00
sg378
I00
sbag367
(g368
g369
S'0.00 IN'
p595
tp596
Rp597
(dp598
g374
Nsg375
I00
sg376
Nsg377
I00
sg378
I00
sbag367
(g368
g369
S'0.00 IN'
p599
tp600
Rp601
(dp602
g374
Nsg375
I00
sg376
Nsg377
I00
sg378
I00
sbag367
(g368
g369
S'0.00 IN'
p603
tp604
Rp605
(dp606
g374
Nsg375
I00
sg376
Nsg377
I00
sg378
I00
sbag367
(g368
g369
S'0.00 IN'
p607
tp608
Rp609
(dp610
g374
Nsg375
I00
sg376
Nsg377
I00
sg378
I00
sbag367
(g368
g369
S'0.00 IN'
p611
tp612
Rp613
(dp614
g374
Nsg375
I00
sg376
Nsg377
I00
sg378
I00
sbag367
(g368
g369
S'0.48 IN'
p615
tp616
Rp617
(dp618
g374
Nsg375
I00
sg376
Nsg377
I00
sg378
I00
sbag367
(g368
g369
S'0.00 IN'
p619
tp620
Rp621
(dp622
g374
Nsg375
I00
sg376
Nsg377
I00
sg378
I00
sbag367
(g368
g369
S'0.73 IN'
p623
tp624
Rp625
(dp626
g374
Nsg375
I00
sg376
Nsg377
I00
sg378
I00
sbag367
(g368
g369
S'0.46 IN'
p627
tp628
Rp629
(dp630
g374
Nsg375
I00
sg376
Nsg377
I00
sg378
I00
sbag367
(g368
g369
S'0.38 IN'
p631
tp632
Rp633
(dp634
g374
Nsg375
I00
sg376
Nsg377
I00
sg378
I00
sbag367
(g368
g369
S'0.00 IN'
p635
tp636
Rp637
(dp638
g374
Nsg375
I00
sg376
Nsg377
I00
sg378
I00
sbag367
(g368
g369
S'0.00 IN'
p639
tp640
Rp641
(dp642
g374
Nsg375
I00
sg376
Nsg377
I00
sg378
I00
sbag367
(g368
g369
S'0.02 IN'
p643
tp644
Rp645
(dp646
g374
Nsg375
I00
sg376
Nsg377
I00
sg378
I00
sbag367
(g368
g369
S'0.11 IN'
p647
tp648
Rp649
(dp650
g374
Nsg375
I00
sg376
Nsg377
I00
sg378
I00
sbag367
(g368
g369
S'0.44 IN'
p651
tp652
Rp653
(dp654
g374
Nsg375
I00
sg376
Nsg377
I00
sg378
I00
sbag367
(g368
g369
S'0.02 IN'
p655
tp656
Rp657
(dp658
g374
Nsg375
I00
sg376
Nsg377
I00
sg378
I00
sbag367
(g368
g369
S'0.00 IN'
p659
tp660
Rp661
(dp662
g374
Nsg375
I00
sg376
Nsg377
I00
sg378
I00
sbag367
(g368
g369
S'0.21 IN'
p663
tp664
Rp665
(dp666
g374
Nsg375
I00
sg376
Nsg377
I00
sg378
I00
sbag367
(g368
g369
S'0.81 IN'
p667
tp668
Rp669
(dp670
g374
Nsg375
I00
sg376
Nsg377
I00
sg378
I00
sbag367
(g368
g369
S'0.00 IN'
p671
tp672
Rp673
(dp674
g374
Nsg375
I00
sg376
Nsg377
I00
sg378
I00
sbag367
(g368
g369
S'0.00 IN'
p675
tp676
Rp677
(dp678
g374
Nsg375
I00
sg376
Nsg377
I00
sg378
I00
sbag367
(g368
g369
S'0.01 IN'
p679
tp680
Rp681
(dp682
g374
Nsg375
I00
sg376
Nsg377
I00
sg378
I00
sbag367
(g368
g369
S'0.00 IN'
p683
tp684
Rp685
(dp686
g374
Nsg375
I00
sg376
Nsg377
I00
sg378
I00
sbag367
(g368
g369
S'0.00 IN'
p687
tp688
Rp689
(dp690
g374
Nsg375
I00
sg376
Nsg377
I00
sg378
I00
sbag367
(g368
g369
S'0.29 IN'
p691
tp692
Rp693
(dp694
g374
Nsg375
I00
sg376
Nsg377
I00
sg378
I00
sbag367
(g368
g369
S'0.01 IN'
p695
tp696
Rp697
(dp698
g374
Nsg375
I00
sg376
Nsg377
I00
sg378
I00
sbag367
(g368
g369
S'0.00 IN'
p699
tp700
Rp701
(dp702
g374
Nsg375
I00
sg376
Nsg377
I00
sg378
I00
sbag367
(g368
g369
S'0.00 IN'
p703
tp704
Rp705
(dp706
g374
Nsg375
I00
sg376
Nsg377
I00
sg378
I00
sbag367
(g368
g369
S'0.00 IN'
p707
tp708
Rp709
(dp710
g374
Nsg375
I00
sg376
Nsg377
I00
sg378
I00
sbag367
(g368
g369
S'0.05 IN'
p711
tp712
Rp713
(dp714
g374
Nsg375
I00
sg376
Nsg377
I00
sg378
I00
sbag367
(g368
g369
S'0.52 IN'
p715
tp716
Rp717
(dp718
g374
Nsg375
I00
sg376
Nsg377
I00
sg378
I00
sbag367
(g368
g369
S'0.28 IN'
p719
tp720
Rp721
(dp722
g374
Nsg375
I00
sg376
Nsg377
I00
sg378
I00
sbag367
(g368
g369
S'0.00 IN'
p723
tp724
Rp725
(dp726
g374
Nsg375
I00
sg376
Nsg377
I00
sg378
I00
sbag367
(g368
g369
S'0.00 IN'
p727
tp728
Rp729
(dp730
g374
Nsg375
I00
sg376
Nsg377
I00
sg378
I00
sbag367
(g368
g369
S'0.00 IN'
p731
tp732
Rp733
(dp734
g374
Nsg375
I00
sg376
Nsg377
I00
sg378
I00
sbag367
(g368
g369
S'0.14 IN'
p735
tp736
Rp737
(dp738
g374
Nsg375
I00
sg376
Nsg377
I00
sg378
I00
sbag367
(g368
g369
S'0.00 IN'
p739
tp740
Rp741
(dp742
g374
Nsg375
I00
sg376
Nsg377
I00
sg378
I00
sbag367
(g368
g369
S'0.00 IN'
p743
tp744
Rp745
(dp746
g374
Nsg375
I00
sg376
Nsg377
I00
sg378
I00
sbag367
(g368
g369
S'0.04 IN'
p747
tp748
Rp749
(dp750
g374
Nsg375
I00
sg376
Nsg377
I00
sg378
I00
sbag367
(g368
g369
S'0.00 IN'
p751
tp752
Rp753
(dp754
g374
Nsg375
I00
sg376
Nsg377
I00
sg378
I00
sbag367
(g368
g369
S'0.00 IN'
p755
tp756
Rp757
(dp758
g374
Nsg375
I00
sg376
Nsg377
I00
sg378
I00
sbag367
(g368
g369
S'0.01 IN'
p759
tp760
Rp761
(dp762
g374
Nsg375
I00
sg376
Nsg377
I00
sg378
I00
sbag367
(g368
g369
S'0.16 IN'
p763
tp764
Rp765
(dp766
g374
Nsg375
I00
sg376
Nsg377
I00
sg378
I00
sbag367
(g368
g369
S'0.00 IN'
p767
tp768
Rp769
(dp770
g374
Nsg375
I00
sg376
Nsg377
I00
sg378
I00
sbag367
(g368
g369
S'0.25 IN'
p771
tp772
Rp773
(dp774
g374
Nsg375
I00
sg376
Nsg377
I00
sg378
I00
sbag367
(g368
g369
S'0.24 IN'
p775
tp776
Rp777
(dp778
g374
Nsg375
I00
sg376
Nsg377
I00
sg378
I00
sbag367
(g368
g369
S'0.00 IN'
p779
tp780
Rp781
(dp782
g374
Nsg375
I00
sg376
Nsg377
I00
sg378
I00
sbag367
(g368
g369
S'0.00 IN'
p783
tp784
Rp785
(dp786
g374
Nsg375
I00
sg376
Nsg377
I00
sg378
I00
sbag367
(g368
g369
S'0.00 IN'
p787
tp788
Rp789
(dp790
g374
Nsg375
I00
sg376
Nsg377
I00
sg378
I00
sbag367
(g368
g369
S'0.00 IN'
p791
tp792
Rp793
(dp794
g374
Nsg375
I00
sg376
Nsg377
I00
sg378
I00
sbag367
(g368
g369
S'0.00 IN'
p795
tp796
Rp797
(dp798
g374
Nsg375
I00
sg376
Nsg377
I00
sg378
I00
sbag367
(g368
g369
S'0.08 IN'
p799
tp800
Rp801
(dp802
g374
Nsg375
I00
sg376
Nsg377
I00
sg378
I00
sbag367
(g368
g369
S'0.00 IN'
p803
tp804
Rp805
(dp806
g374
Nsg375
I00
sg376
Nsg377
I00
sg378
I00
sbag367
(g368
g369
S'0.00 IN'
p807
tp808
Rp809
(dp810
g374
Nsg375
I00
sg376
Nsg377
I00
sg378
I00
sbag367
(g368
g369
S'0.00 IN'
p811
tp812
Rp813
(dp814
g374
Nsg375
I00
sg376
Nsg377
I00
sg378
I00
sbag367
(g368
g369
S'0.95 IN'
p815
tp816
Rp817
(dp818
g374
Nsg375
I00
sg376
Nsg377
I00
sg378
I00
sbag367
(g368
g369
S'0.07 IN'
p819
tp820
Rp821
(dp822
g374
Nsg375
I00
sg376
Nsg377
I00
sg378
I00
sbag367
(g368
g369
S'0.10 IN'
p823
tp824
Rp825
(dp826
g374
Nsg375
I00
sg376
Nsg377
I00
sg378
I00
sbag367
(g368
g369
S'0.00 IN'
p827
tp828
Rp829
(dp830
g374
Nsg375
I00
sg376
Nsg377
I00
sg378
I00
sbag367
(g368
g369
S'0.00 IN'
p831
tp832
Rp833
(dp834
g374
Nsg375
I00
sg376
Nsg377
I00
sg378
I00
sbag367
(g368
g369
S'0.00 IN'
p835
tp836
Rp837
(dp838
g374
Nsg375
I00
sg376
Nsg377
I00
sg378
I00
sbag367
(g368
g369
S'0.00 IN'
p839
tp840
Rp841
(dp842
g374
Nsg375
I00
sg376
Nsg377
I00
sg378
I00
sbag367
(g368
g369
S'0.00 IN'
p843
tp844
Rp845
(dp846
g374
Nsg375
I00
sg376
Nsg377
I00
sg378
I00
sbag367
(g368
g369
S'0.00 IN'
p847
tp848
Rp849
(dp850
g374
Nsg375
I00
sg376
Nsg377
I00
sg378
I00
sbag367
(g368
g369
S'0.00 IN'
p851
tp852
Rp853
(dp854
g374
Nsg375
I00
sg376
Nsg377
I00
sg378
I00
sbag367
(g368
g369
S'0.00 IN'
p855
tp856
Rp857
(dp858
g374
Nsg375
I00
sg376
Nsg377
I00
sg378
I00
sbag367
(g368
g369
S'0.00 IN'
p859
tp860
Rp861
(dp862
g374
Nsg375
I00
sg376
Nsg377
I00
sg378
I00
sbag367
(g368
g369
S'0.00 IN'
p863
tp864
Rp865
(dp866
g374
Nsg375
I00
sg376
Nsg377
I00
sg378
I00
sbag367
(g368
g369
S'0.00 IN'
p867
tp868
Rp869
(dp870
g374
Nsg375
I00
sg376
Nsg377
I00
sg378
I00
sbag367
(g368
g369
S'0.00 IN'
p871
tp872
Rp873
(dp874
g374
Nsg375
I00
sg376
Nsg377
I00
sg378
I00
sbag367
(g368
g369
S'0.00 IN'
p875
tp876
Rp877
(dp878
g374
Nsg375
I00
sg376
Nsg377
I00
sg378
I00
sbag367
(g368
g369
S'0.00 IN'
p879
tp880
Rp881
(dp882
g374
Nsg375
I00
sg376
Nsg377
I00
sg378
I00
sbag367
(g368
g369
S'0.00 IN'
p883
tp884
Rp885
(dp886
g374
Nsg375
I00
sg376
Nsg377
I00
sg378
I00
sbag367
(g368
g369
S'0.00 IN'
p887
tp888
Rp889
(dp890
g374
Nsg375
I00
sg376
Nsg377
I00
sg378
I00
sbag367
(g368
g369
S'0.01 IN'
p891
tp892
Rp893
(dp894
g374
Nsg375
I00
sg376
Nsg377
I00
sg378
I00
sbag367
(g368
g369
S'0.00 IN'
p895
tp896
Rp897
(dp898
g374
Nsg375
I00
sg376
Nsg377
I00
sg378
I00
sbag367
(g368
g369
S'0.00 IN'
p899
tp900
Rp901
(dp902
g374
Nsg375
I00
sg376
Nsg377
I00
sg378
I00
sbag367
(g368
g369
S'0.00 IN'
p903
tp904
Rp905
(dp906
g374
Nsg375
I00
sg376
Nsg377
I00
sg378
I00
sbag367
(g368
g369
S'0.00 IN'
p907
tp908
Rp909
(dp910
g374
Nsg375
I00
sg376
Nsg377
I00
sg378
I00
sbag367
(g368
g369
S'0.00 IN'
p911
tp912
Rp913
(dp914
g374
Nsg375
I00
sg376
Nsg377
I00
sg378
I00
sbag367
(g368
g369
S'0.01 IN'
p915
tp916
Rp917
(dp918
g374
Nsg375
I00
sg376
Nsg377
I00
sg378
I00
sbag367
(g368
g369
S'0.28 IN'
p919
tp920
Rp921
(dp922
g374
Nsg375
I00
sg376
Nsg377
I00
sg378
I00
sbag367
(g368
g369
S'0.02 IN'
p923
tp924
Rp925
(dp926
g374
Nsg375
I00
sg376
Nsg377
I00
sg378
I00
sbag367
(g368
g369
S'0.01 IN'
p927
tp928
Rp929
(dp930
g374
Nsg375
I00
sg376
Nsg377
I00
sg378
I00
sbag367
(g368
g369
S'0.00 IN'
p931
tp932
Rp933
(dp934
g374
Nsg375
I00
sg376
Nsg377
I00
sg378
I00
sbag367
(g368
g369
S'0.00 IN'
p935
tp936
Rp937
(dp938
g374
Nsg375
I00
sg376
Nsg377
I00
sg378
I00
sbag367
(g368
g369
S'0.00 IN'
p939
tp940
Rp941
(dp942
g374
Nsg375
I00
sg376
Nsg377
I00
sg378
I00
sbag367
(g368
g369
S'0.00 IN'
p943
tp944
Rp945
(dp946
g374
Nsg375
I00
sg376
Nsg377
I00
sg378
I00
sbag367
(g368
g369
S'0.00 IN'
p947
tp948
Rp949
(dp950
g374
Nsg375
I00
sg376
Nsg377
I00
sg378
I00
sbag367
(g368
g369
S'0.00 IN'
p951
tp952
Rp953
(dp954
g374
Nsg375
I00
sg376
Nsg377
I00
sg378
I00
sbag367
(g368
g369
S'0.00 IN'
p955
tp956
Rp957
(dp958
g374
Nsg375
I00
sg376
Nsg377
I00
sg378
I00
sbag367
(g368
g369
S'0.00 IN'
p959
tp960
Rp961
(dp962
g374
Nsg375
I00
sg376
Nsg377
I00
sg378
I00
sbag367
(g368
g369
S'0.02 IN'
p963
tp964
Rp965
(dp966
g374
Nsg375
I00
sg376
Nsg377
I00
sg378
I00
sbag367
(g368
g369
S'0.00 IN'
p967
tp968
Rp969
(dp970
g374
Nsg375
I00
sg376
Nsg377
I00
sg378
I00
sbag367
(g368
g369
S'0.00 IN'
p971
tp972
Rp973
(dp974
g374
Nsg375
I00
sg376
Nsg377
I00
sg378
I00
sbag367
(g368
g369
S'0.00 IN'
p975
tp976
Rp977
(dp978
g374
Nsg375
I00
sg376
Nsg377
I00
sg378
I00
sbag367
(g368
g369
S'1.69 IN'
p979
tp980
Rp981
(dp982
g374
Nsg375
I00
sg376
Nsg377
I00
sg378
I00
sbag367
(g368
g369
S'0.47 IN'
p983
tp984
Rp985
(dp986
g374
Nsg375
I00
sg376
Nsg377
I00
sg378
I00
sbag367
(g368
g369
S'0.24 IN'
p987
tp988
Rp989
(dp990
g374
Nsg375
I00
sg376
Nsg377
I00
sg378
I00
sbag367
(g368
g369
S'0.00 IN'
p991
tp992
Rp993
(dp994
g374
Nsg375
I00
sg376
Nsg377
I00
sg378
I00
sbag367
(g368
g369
S'0.00 IN'
p995
tp996
Rp997
(dp998
g374
Nsg375
I00
sg376
Nsg377
I00
sg378
I00
sbag367
(g368
g369
S'0.55 IN'
p999
tp1000
Rp1001
(dp1002
g374
Nsg375
I00
sg376
Nsg377
I00
sg378
I00
sbag367
(g368
g369
S'0.00 IN'
p1003
tp1004
Rp1005
(dp1006
g374
Nsg375
I00
sg376
Nsg377
I00
sg378
I00
sbag367
(g368
g369
S'0.00 IN'
p1007
tp1008
Rp1009
(dp1010
g374
Nsg375
I00
sg376
Nsg377
I00
sg378
I00
sbag367
(g368
g369
S'0.05 IN'
p1011
tp1012
Rp1013
(dp1014
g374
Nsg375
I00
sg376
Nsg377
I00
sg378
I00
sbag367
(g368
g369
S'0.01 IN'
p1015
tp1016
Rp1017
(dp1018
g374
Nsg375
I00
sg376
Nsg377
I00
sg378
I00
sbag367
(g368
g369
S'0.00 IN'
p1019
tp1020
Rp1021
(dp1022
g374
Nsg375
I00
sg376
Nsg377
I00
sg378
I00
sbag367
(g368
g369
S'0.00 IN'
p1023
tp1024
Rp1025
(dp1026
g374
Nsg375
I00
sg376
Nsg377
I00
sg378
I00
sbag367
(g368
g369
S'0.00 IN'
p1027
tp1028
Rp1029
(dp1030
g374
Nsg375
I00
sg376
Nsg377
I00
sg378
I00
sbag367
(g368
g369
S'0.00 IN'
p1031
tp1032
Rp1033
(dp1034
g374
Nsg375
I00
sg376
Nsg377
I00
sg378
I00
sbag367
(g368
g369
S'0.79 IN'
p1035
tp1036
Rp1037
(dp1038
g374
Nsg375
I00
sg376
Nsg377
I00
sg378
I00
sbag367
(g368
g369
S'0.02 IN'
p1039
tp1040
Rp1041
(dp1042
g374
Nsg375
I00
sg376
Nsg377
I00
sg378
I00
sbag367
(g368
g369
S'0.34 IN'
p1043
tp1044
Rp1045
(dp1046
g374
Nsg375
I00
sg376
Nsg377
I00
sg378
I00
sbag367
(g368
g369
S'0.00 IN'
p1047
tp1048
Rp1049
(dp1050
g374
Nsg375
I00
sg376
Nsg377
I00
sg378
I00
sbag367
(g368
g369
S'0.00 IN'
p1051
tp1052
Rp1053
(dp1054
g374
Nsg375
I00
sg376
Nsg377
I00
sg378
I00
sbag367
(g368
g369
S'0.00 IN'
p1055
tp1056
Rp1057
(dp1058
g374
Nsg375
I00
sg376
Nsg377
I00
sg378
I00
sbag367
(g368
g369
S'0.25 IN'
p1059
tp1060
Rp1061
(dp1062
g374
Nsg375
I00
sg376
Nsg377
I00
sg378
I00
sbag367
(g368
g369
S'0.29 IN'
p1063
tp1064
Rp1065
(dp1066
g374
Nsg375
I00
sg376
Nsg377
I00
sg378
I00
sbag367
(g368
g369
S'0.00 IN'
p1067
tp1068
Rp1069
(dp1070
g374
Nsg375
I00
sg376
Nsg377
I00
sg378
I00
sbag367
(g368
g369
S'0.07 IN'
p1071
tp1072
Rp1073
(dp1074
g374
Nsg375
I00
sg376
Nsg377
I00
sg378
I00
sbag367
(g368
g369
S'0.00 IN'
p1075
tp1076
Rp1077
(dp1078
g374
Nsg375
I00
sg376
Nsg377
I00
sg378
I00
sbag367
(g368
g369
S'0.00 IN'
p1079
tp1080
Rp1081
(dp1082
g374
Nsg375
I00
sg376
Nsg377
I00
sg378
I00
sbag367
(g368
g369
S'0.00 IN'
p1083
tp1084
Rp1085
(dp1086
g374
Nsg375
I00
sg376
Nsg377
I00
sg378
I00
sbag367
(g368
g369
S'1.32 IN'
p1087
tp1088
Rp1089
(dp1090
g374
Nsg375
I00
sg376
Nsg377
I00
sg378
I00
sbag367
(g368
g369
S'0.26 IN'
p1091
tp1092
Rp1093
(dp1094
g374
Nsg375
I00
sg376
Nsg377
I00
sg378
I00
sbag367
(g368
g369
S'0.00 IN'
p1095
tp1096
Rp1097
(dp1098
g374
Nsg375
I00
sg376
Nsg377
I00
sg378
I00
sbag367
(g368
g369
S'0.35 IN'
p1099
tp1100
Rp1101
(dp1102
g374
Nsg375
I00
sg376
Nsg377
I00
sg378
I00
sbag367
(g368
g369
S'0.00 IN'
p1103
tp1104
Rp1105
(dp1106
g374
Nsg375
I00
sg376
Nsg377
I00
sg378
I00
sbag367
(g368
g369
S'0.00 IN'
p1107
tp1108
Rp1109
(dp1110
g374
Nsg375
I00
sg376
Nsg377
I00
sg378
I00
sbag367
(g368
g369
S'0.00 IN'
p1111
tp1112
Rp1113
(dp1114
g374
Nsg375
I00
sg376
Nsg377
I00
sg378
I00
sbag367
(g368
g369
S'0.00 IN'
p1115
tp1116
Rp1117
(dp1118
g374
Nsg375
I00
sg376
Nsg377
I00
sg378
I00
sbag367
(g368
g369
S'0.00 IN'
p1119
tp1120
Rp1121
(dp1122
g374
Nsg375
I00
sg376
Nsg377
I00
sg378
I00
sbag367
(g368
g369
S'0.00 IN'
p1123
tp1124
Rp1125
(dp1126
g374
Nsg375
I00
sg376
Nsg377
I00
sg378
I00
sbag367
(g368
g369
S'0.00 IN'
p1127
tp1128
Rp1129
(dp1130
g374
Nsg375
I00
sg376
Nsg377
I00
sg378
I00
sbag367
(g368
g369
S'0.09 IN'
p1131
tp1132
Rp1133
(dp1134
g374
Nsg375
I00
sg376
Nsg377
I00
sg378
I00
sbag367
(g368
g369
S'0.29 IN'
p1135
tp1136
Rp1137
(dp1138
g374
Nsg375
I00
sg376
Nsg377
I00
sg378
I00
sbag367
(g368
g369
S'0.00 IN'
p1139
tp1140
Rp1141
(dp1142
g374
Nsg375
I00
sg376
Nsg377
I00
sg378
I00
sbag367
(g368
g369
S'0.00 IN'
p1143
tp1144
Rp1145
(dp1146
g374
Nsg375
I00
sg376
Nsg377
I00
sg378
I00
sbag367
(g368
g369
S'0.00 IN'
p1147
tp1148
Rp1149
(dp1150
g374
Nsg375
I00
sg376
Nsg377
I00
sg378
I00
sbag367
(g368
g369
S'0.00 IN'
p1151
tp1152
Rp1153
(dp1154
g374
Nsg375
I00
sg376
Nsg377
I00
sg378
I00
sbag367
(g368
g369
S'0.95 IN'
p1155
tp1156
Rp1157
(dp1158
g374
Nsg375
I00
sg376
Nsg377
I00
sg378
I00
sbag367
(g368
g369
S'0.01 IN'
p1159
tp1160
Rp1161
(dp1162
g374
Nsg375
I00
sg376
Nsg377
I00
sg378
I00
sbag367
(g368
g369
S'0.00 IN'
p1163
tp1164
Rp1165
(dp1166
g374
Nsg375
I00
sg376
Nsg377
I00
sg378
I00
sbag367
(g368
g369
S'0.00 IN'
p1167
tp1168
Rp1169
(dp1170
g374
Nsg375
I00
sg376
Nsg377
I00
sg378
I00
sbag367
(g368
g369
S'0.18 IN'
p1171
tp1172
Rp1173
(dp1174
g374
Nsg375
I00
sg376
Nsg377
I00
sg378
I00
sbag367
(g368
g369
S'0.00 IN'
p1175
tp1176
Rp1177
(dp1178
g374
Nsg375
I00
sg376
Nsg377
I00
sg378
I00
sbag367
(g368
g369
S'0.00 IN'
p1179
tp1180
Rp1181
(dp1182
g374
Nsg375
I00
sg376
Nsg377
I00
sg378
I00
sbag367
(g368
g369
S'0.00 IN'
p1183
tp1184
Rp1185
(dp1186
g374
Nsg375
I00
sg376
Nsg377
I00
sg378
I00
sbag367
(g368
g369
S'0.00 IN'
p1187
tp1188
Rp1189
(dp1190
g374
Nsg375
I00
sg376
Nsg377
I00
sg378
I00
sbag367
(g368
g369
S'0.00 IN'
p1191
tp1192
Rp1193
(dp1194
g374
Nsg375
I00
sg376
Nsg377
I00
sg378
I00
sbag367
(g368
g369
S'0.00 IN'
p1195
tp1196
Rp1197
(dp1198
g374
Nsg375
I00
sg376
Nsg377
I00
sg378
I00
sbag367
(g368
g369
S'0.00 IN'
p1199
tp1200
Rp1201
(dp1202
g374
Nsg375
I00
sg376
Nsg377
I00
sg378
I00
sbag367
(g368
g369
S'0.05 IN'
p1203
tp1204
Rp1205
(dp1206
g374
Nsg375
I00
sg376
Nsg377
I00
sg378
I00
sbag367
(g368
g369
S'0.00 IN'
p1207
tp1208
Rp1209
(dp1210
g374
Nsg375
I00
sg376
Nsg377
I00
sg378
I00
sbag367
(g368
g369
S'0.00 IN'
p1211
tp1212
Rp1213
(dp1214
g374
Nsg375
I00
sg376
Nsg377
I00
sg378
I00
sbag367
(g368
g369
S'0.00 IN'
p1215
tp1216
Rp1217
(dp1218
g374
Nsg375
I00
sg376
Nsg377
I00
sg378
I00
sbag367
(g368
g369
S'1.62 IN'
p1219
tp1220
Rp1221
(dp1222
g374
Nsg375
I00
sg376
Nsg377
I00
sg378
I00
sbag367
(g368
g369
S'0.00 IN'
p1223
tp1224
Rp1225
(dp1226
g374
Nsg375
I00
sg376
Nsg377
I00
sg378
I00
sbag367
(g368
g369
S'0.00 IN'
p1227
tp1228
Rp1229
(dp1230
g374
Nsg375
I00
sg376
Nsg377
I00
sg378
I00
sbag367
(g368
g369
S'0.00 IN'
p1231
tp1232
Rp1233
(dp1234
g374
Nsg375
I00
sg376
Nsg377
I00
sg378
I00
sbag367
(g368
g369
S'0.30 IN'
p1235
tp1236
Rp1237
(dp1238
g374
Nsg375
I00
sg376
Nsg377
I00
sg378
I00
sbag367
(g368
g369
S'0.00 IN'
p1239
tp1240
Rp1241
(dp1242
g374
Nsg375
I00
sg376
Nsg377
I00
sg378
I00
sbag367
(g368
g369
S'0.00 IN'
p1243
tp1244
Rp1245
(dp1246
g374
Nsg375
I00
sg376
Nsg377
I00
sg378
I00
sbag367
(g368
g369
S'0.00 IN'
p1247
tp1248
Rp1249
(dp1250
g374
Nsg375
I00
sg376
Nsg377
I00
sg378
I00
sbag367
(g368
g369
S'0.00 IN'
p1251
tp1252
Rp1253
(dp1254
g374
Nsg375
I00
sg376
Nsg377
I00
sg378
I00
sbag367
(g368
g369
S'0.00 IN'
p1255
tp1256
Rp1257
(dp1258
g374
Nsg375
I00
sg376
Nsg377
I00
sg378
I00
sbag367
(g368
g369
S'0.00 IN'
p1259
tp1260
Rp1261
(dp1262
g374
Nsg375
I00
sg376
Nsg377
I00
sg378
I00
sbag367
(g368
g369
S'0.67 IN'
p1263
tp1264
Rp1265
(dp1266
g374
Nsg375
I00
sg376
Nsg377
I00
sg378
I00
sbag367
(g368
g369
S'0.51 IN'
p1267
tp1268
Rp1269
(dp1270
g374
Nsg375
I00
sg376
Nsg377
I00
sg378
I00
sbag367
(g368
g369
S'0.00 IN'
p1271
tp1272
Rp1273
(dp1274
g374
Nsg375
I00
sg376
Nsg377
I00
sg378
I00
sbag367
(g368
g369
S'0.00 IN'
p1275
tp1276
Rp1277
(dp1278
g374
Nsg375
I00
sg376
Nsg377
I00
sg378
I00
sbag367
(g368
g369
S'0.00 IN'
p1279
tp1280
Rp1281
(dp1282
g374
Nsg375
I00
sg376
Nsg377
I00
sg378
I00
sbag367
(g368
g369
S'0.00 IN'
p1283
tp1284
Rp1285
(dp1286
g374
Nsg375
I00
sg376
Nsg377
I00
sg378
I00
sbag367
(g368
g369
S'0.00 IN'
p1287
tp1288
Rp1289
(dp1290
g374
Nsg375
I00
sg376
Nsg377
I00
sg378
I00
sbag367
(g368
g369
S'0.00 IN'
p1291
tp1292
Rp1293
(dp1294
g374
Nsg375
I00
sg376
Nsg377
I00
sg378
I00
sbag367
(g368
g369
S'0.00 IN'
p1295
tp1296
Rp1297
(dp1298
g374
Nsg375
I00
sg376
Nsg377
I00
sg378
I00
sbag367
(g368
g369
S'0.00 IN'
p1299
tp1300
Rp1301
(dp1302
g374
Nsg375
I00
sg376
Nsg377
I00
sg378
I00
sbag367
(g368
g369
S'0.32 IN'
p1303
tp1304
Rp1305
(dp1306
g374
Nsg375
I00
sg376
Nsg377
I00
sg378
I00
sbag367
(g368
g369
S'0.00 IN'
p1307
tp1308
Rp1309
(dp1310
g374
Nsg375
I00
sg376
Nsg377
I00
sg378
I00
sbag367
(g368
g369
S'0.00 IN'
p1311
tp1312
Rp1313
(dp1314
g374
Nsg375
I00
sg376
Nsg377
I00
sg378
I00
sbag367
(g368
g369
S'0.00 IN'
p1315
tp1316
Rp1317
(dp1318
g374
Nsg375
I00
sg376
Nsg377
I00
sg378
I00
sbag367
(g368
g369
S'0.00 IN'
p1319
tp1320
Rp1321
(dp1322
g374
Nsg375
I00
sg376
Nsg377
I00
sg378
I00
sbag367
(g368
g369
S'0.00 IN'
p1323
tp1324
Rp1325
(dp1326
g374
Nsg375
I00
sg376
Nsg377
I00
sg378
I00
sbag367
(g368
g369
S'0.00 IN'
p1327
tp1328
Rp1329
(dp1330
g374
Nsg375
I00
sg376
Nsg377
I00
sg378
I00
sbag367
(g368
g369
S'0.00 IN'
p1331
tp1332
Rp1333
(dp1334
g374
Nsg375
I00
sg376
Nsg377
I00
sg378
I00
sbag367
(g368
g369
S'0.00 IN'
p1335
tp1336
Rp1337
(dp1338
g374
Nsg375
I00
sg376
Nsg377
I00
sg378
I00
sbag367
(g368
g369
S'0.00 IN'
p1339
tp1340
Rp1341
(dp1342
g374
Nsg375
I00
sg376
Nsg377
I00
sg378
I00
sbag367
(g368
g369
S'0.08 IN'
p1343
tp1344
Rp1345
(dp1346
g374
Nsg375
I00
sg376
Nsg377
I00
sg378
I00
sbag367
(g368
g369
S'0.00 IN'
p1347
tp1348
Rp1349
(dp1350
g374
Nsg375
I00
sg376
Nsg377
I00
sg378
I00
sbag367
(g368
g369
S'0.00 IN'
p1351
tp1352
Rp1353
(dp1354
g374
Nsg375
I00
sg376
Nsg377
I00
sg378
I00
sbag367
(g368
g369
S'0.00 IN'
p1355
tp1356
Rp1357
(dp1358
g374
Nsg375
I00
sg376
Nsg377
I00
sg378
I00
sbag367
(g368
g369
S'0.00 IN'
p1359
tp1360
Rp1361
(dp1362
g374
Nsg375
I00
sg376
Nsg377
I00
sg378
I00
sbag367
(g368
g369
S'0.00 IN'
p1363
tp1364
Rp1365
(dp1366
g374
Nsg375
I00
sg376
Nsg377
I00
sg378
I00
sbag367
(g368
g369
S'0.00 IN'
p1367
tp1368
Rp1369
(dp1370
g374
Nsg375
I00
sg376
Nsg377
I00
sg378
I00
sbag367
(g368
g369
S'0.00 IN'
p1371
tp1372
Rp1373
(dp1374
g374
Nsg375
I00
sg376
Nsg377
I00
sg378
I00
sbag367
(g368
g369
S'0.00 IN'
p1375
tp1376
Rp1377
(dp1378
g374
Nsg375
I00
sg376
Nsg377
I00
sg378
I00
sbag367
(g368
g369
S'0.00 IN'
p1379
tp1380
Rp1381
(dp1382
g374
Nsg375
I00
sg376
Nsg377
I00
sg378
I00
sbag367
(g368
g369
S'0.66 IN'
p1383
tp1384
Rp1385
(dp1386
g374
Nsg375
I00
sg376
Nsg377
I00
sg378
I00
sbag367
(g368
g369
S'0.52 IN'
p1387
tp1388
Rp1389
(dp1390
g374
Nsg375
I00
sg376
Nsg377
I00
sg378
I00
sbag367
(g368
g369
S'0.00 IN'
p1391
tp1392
Rp1393
(dp1394
g374
Nsg375
I00
sg376
Nsg377
I00
sg378
I00
sbag367
(g368
g369
S'0.22 IN'
p1395
tp1396
Rp1397
(dp1398
g374
Nsg375
I00
sg376
Nsg377
I00
sg378
I00
sbag367
(g368
g369
S'0.05 IN'
p1399
tp1400
Rp1401
(dp1402
g374
Nsg375
I00
sg376
Nsg377
I00
sg378
I00
sbag367
(g368
g369
S'0.00 IN'
p1403
tp1404
Rp1405
(dp1406
g374
Nsg375
I00
sg376
Nsg377
I00
sg378
I00
sbag367
(g368
g369
S'0.00 IN'
p1407
tp1408
Rp1409
(dp1410
g374
Nsg375
I00
sg376
Nsg377
I00
sg378
I00
sbag367
(g368
g369
S'0.00 IN'
p1411
tp1412
Rp1413
(dp1414
g374
Nsg375
I00
sg376
Nsg377
I00
sg378
I00
sbag367
(g368
g369
S'0.00 IN'
p1415
tp1416
Rp1417
(dp1418
g374
Nsg375
I00
sg376
Nsg377
I00
sg378
I00
sbag367
(g368
g369
S'0.00 IN'
p1419
tp1420
Rp1421
(dp1422
g374
Nsg375
I00
sg376
Nsg377
I00
sg378
I00
sbag367
(g368
g369
S'0.00 IN'
p1423
tp1424
Rp1425
(dp1426
g374
Nsg375
I00
sg376
Nsg377
I00
sg378
I00
sbag367
(g368
g369
S'0.00 IN'
p1427
tp1428
Rp1429
(dp1430
g374
Nsg375
I00
sg376
Nsg377
I00
sg378
I00
sbag367
(g368
g369
S'0.00 IN'
p1431
tp1432
Rp1433
(dp1434
g374
Nsg375
I00
sg376
Nsg377
I00
sg378
I00
sbag367
(g368
g369
S'0.00 IN'
p1435
tp1436
Rp1437
(dp1438
g374
Nsg375
I00
sg376
Nsg377
I00
sg378
I00
sbag367
(g368
g369
S'0.00 IN'
p1439
tp1440
Rp1441
(dp1442
g374
Nsg375
I00
sg376
Nsg377
I00
sg378
I00
sbag367
(g368
g369
S'0.00 IN'
p1443
tp1444
Rp1445
(dp1446
g374
Nsg375
I00
sg376
Nsg377
I00
sg378
I00
sbag367
(g368
g369
S'0.00 IN'
p1447
tp1448
Rp1449
(dp1450
g374
Nsg375
I00
sg376
Nsg377
I00
sg378
I00
sbag367
(g368
g369
S'0.00 IN'
p1451
tp1452
Rp1453
(dp1454
g374
Nsg375
I00
sg376
Nsg377
I00
sg378
I00
sbag367
(g368
g369
S'0.00 IN'
p1455
tp1456
Rp1457
(dp1458
g374
Nsg375
I00
sg376
Nsg377
I00
sg378
I00
sbag367
(g368
g369
S'0.00 IN'
p1459
tp1460
Rp1461
(dp1462
g374
Nsg375
I00
sg376
Nsg377
I00
sg378
I00
sbag367
(g368
g369
S'1.05 IN'
p1463
tp1464
Rp1465
(dp1466
g374
Nsg375
I00
sg376
Nsg377
I00
sg378
I00
sbag367
(g368
g369
S'0.06 IN'
p1467
tp1468
Rp1469
(dp1470
g374
Nsg375
I00
sg376
Nsg377
I00
sg378
I00
sbag367
(g368
g369
S'0.13 IN'
p1471
tp1472
Rp1473
(dp1474
g374
Nsg375
I00
sg376
Nsg377
I00
sg378
I00
sbag367
(g368
g369
S'1.45 IN'
p1475
tp1476
Rp1477
(dp1478
g374
Nsg375
I00
sg376
Nsg377
I00
sg378
I00
sbag367
(g368
g369
S'0.02 IN'
p1479
tp1480
Rp1481
(dp1482
g374
Nsg375
I00
sg376
Nsg377
I00
sg378
I00
sbag367
(g368
g369
S'0.00 IN'
p1483
tp1484
Rp1485
(dp1486
g374
Nsg375
I00
sg376
Nsg377
I00
sg378
I00
sbag367
(g368
g369
S'0.00 IN'
p1487
tp1488
Rp1489
(dp1490
g374
Nsg375
I00
sg376
Nsg377
I00
sg378
I00
sbag367
(g368
g369
S'0.00 IN'
p1491
tp1492
Rp1493
(dp1494
g374
Nsg375
I00
sg376
Nsg377
I00
sg378
I00
sbag367
(g368
g369
S'0.00 IN'
p1495
tp1496
Rp1497
(dp1498
g374
Nsg375
I00
sg376
Nsg377
I00
sg378
I00
sbag367
(g368
g369
S'0.00 IN'
p1499
tp1500
Rp1501
(dp1502
g374
Nsg375
I00
sg376
Nsg377
I00
sg378
I00
sbag367
(g368
g369
S'0.50 IN'
p1503
tp1504
Rp1505
(dp1506
g374
Nsg375
I00
sg376
Nsg377
I00
sg378
I00
sbag367
(g368
g369
S'0.00 IN'
p1507
tp1508
Rp1509
(dp1510
g374
Nsg375
I00
sg376
Nsg377
I00
sg378
I00
sbag367
(g368
g369
S'0.00 IN'
p1511
tp1512
Rp1513
(dp1514
g374
Nsg375
I00
sg376
Nsg377
I00
sg378
I00
sbag367
(g368
g369
S'0.00 IN'
p1515
tp1516
Rp1517
(dp1518
g374
Nsg375
I00
sg376
Nsg377
I00
sg378
I00
sbag367
(g368
g369
S'0.00 IN'
p1519
tp1520
Rp1521
(dp1522
g374
Nsg375
I00
sg376
Nsg377
I00
sg378
I00
sbag367
(g368
g369
S'0.00 IN'
p1523
tp1524
Rp1525
(dp1526
g374
Nsg375
I00
sg376
Nsg377
I00
sg378
I00
sbag367
(g368
g369
S'0.00 IN'
p1527
tp1528
Rp1529
(dp1530
g374
Nsg375
I00
sg376
Nsg377
I00
sg378
I00
sbag367
(g368
g369
S'0.00 IN'
p1531
tp1532
Rp1533
(dp1534
g374
Nsg375
I00
sg376
Nsg377
I00
sg378
I00
sbag367
(g368
g369
S'0.00 IN'
p1535
tp1536
Rp1537
(dp1538
g374
Nsg375
I00
sg376
Nsg377
I00
sg378
I00
sbag367
(g368
g369
S'0.00 IN'
p1539
tp1540
Rp1541
(dp1542
g374
Nsg375
I00
sg376
Nsg377
I00
sg378
I00
sbag367
(g368
g369
S'0.00 IN'
p1543
tp1544
Rp1545
(dp1546
g374
Nsg375
I00
sg376
Nsg377
I00
sg378
I00
sbag367
(g368
g369
S'0.00 IN'
p1547
tp1548
Rp1549
(dp1550
g374
Nsg375
I00
sg376
Nsg377
I00
sg378
I00
sbag367
(g368
g369
S'0.00 IN'
p1551
tp1552
Rp1553
(dp1554
g374
Nsg375
I00
sg376
Nsg377
I00
sg378
I00
sbag367
(g368
g369
S'0.00 IN'
p1555
tp1556
Rp1557
(dp1558
g374
Nsg375
I00
sg376
Nsg377
I00
sg378
I00
sbag367
(g368
g369
S'0.00 IN'
p1559
tp1560
Rp1561
(dp1562
g374
Nsg375
I00
sg376
Nsg377
I00
sg378
I00
sbag367
(g368
g369
S'0.01 IN'
p1563
tp1564
Rp1565
(dp1566
g374
Nsg375
I00
sg376
Nsg377
I00
sg378
I00
sbag367
(g368
g369
S'0.02 IN'
p1567
tp1568
Rp1569
(dp1570
g374
Nsg375
I00
sg376
Nsg377
I00
sg378
I00
sbag367
(g368
g369
S'0.00 IN'
p1571
tp1572
Rp1573
(dp1574
g374
Nsg375
I00
sg376
Nsg377
I00
sg378
I00
sbag367
(g368
g369
S'0.00 IN'
p1575
tp1576
Rp1577
(dp1578
g374
Nsg375
I00
sg376
Nsg377
I00
sg378
I00
sbag367
(g368
g369
S'1.26 IN'
p1579
tp1580
Rp1581
(dp1582
g374
Nsg375
I00
sg376
Nsg377
I00
sg378
I00
sbag367
(g368
g369
S'0.01 IN'
p1583
tp1584
Rp1585
(dp1586
g374
Nsg375
I00
sg376
Nsg377
I00
sg378
I00
sbag367
(g368
g369
S'0.00 IN'
p1587
tp1588
Rp1589
(dp1590
g374
Nsg375
I00
sg376
Nsg377
I00
sg378
I00
sbag367
(g368
g369
S'0.00 IN'
p1591
tp1592
Rp1593
(dp1594
g374
Nsg375
I00
sg376
Nsg377
I00
sg378
I00
sbag367
(g368
g369
S'0.00 IN'
p1595
tp1596
Rp1597
(dp1598
g374
Nsg375
I00
sg376
Nsg377
I00
sg378
I00
sbag367
(g368
g369
S'0.00 IN'
p1599
tp1600
Rp1601
(dp1602
g374
Nsg375
I00
sg376
Nsg377
I00
sg378
I00
sbag367
(g368
g369
S'0.00 IN'
p1603
tp1604
Rp1605
(dp1606
g374
Nsg375
I00
sg376
Nsg377
I00
sg378
I00
sbag367
(g368
g369
S'0.00 IN'
p1607
tp1608
Rp1609
(dp1610
g374
Nsg375
I00
sg376
Nsg377
I00
sg378
I00
sbag367
(g368
g369
S'0.00 IN'
p1611
tp1612
Rp1613
(dp1614
g374
Nsg375
I00
sg376
Nsg377
I00
sg378
I00
sbag367
(g368
g369
S'0.00 IN'
p1615
tp1616
Rp1617
(dp1618
g374
Nsg375
I00
sg376
Nsg377
I00
sg378
I00
sbag367
(g368
g369
S'0.00 IN'
p1619
tp1620
Rp1621
(dp1622
g374
Nsg375
I00
sg376
Nsg377
I00
sg378
I00
sbag367
(g368
g369
S'0.00 IN'
p1623
tp1624
Rp1625
(dp1626
g374
Nsg375
I00
sg376
Nsg377
I00
sg378
I00
sbag367
(g368
g369
S'0.00 IN'
p1627
tp1628
Rp1629
(dp1630
g374
Nsg375
I00
sg376
Nsg377
I00
sg378
I00
sbag367
(g368
g369
S'0.50 IN'
p1631
tp1632
Rp1633
(dp1634
g374
Nsg375
I00
sg376
Nsg377
I00
sg378
I00
sbag367
(g368
g369
S'0.23 IN'
p1635
tp1636
Rp1637
(dp1638
g374
Nsg375
I00
sg376
Nsg377
I00
sg378
I00
sbag367
(g368
g369
S'0.01 IN'
p1639
tp1640
Rp1641
(dp1642
g374
Nsg375
I00
sg376
Nsg377
I00
sg378
I00
sbag367
(g368
g369
S'0.00 IN'
p1643
tp1644
Rp1645
(dp1646
g374
Nsg375
I00
sg376
Nsg377
I00
sg378
I00
sbag367
(g368
g369
S'0.00 IN'
p1647
tp1648
Rp1649
(dp1650
g374
Nsg375
I00
sg376
Nsg377
I00
sg378
I00
sbag367
(g368
g369
S'0.00 IN'
p1651
tp1652
Rp1653
(dp1654
g374
Nsg375
I00
sg376
Nsg377
I00
sg378
I00
sbag367
(g368
g369
S'0.00 IN'
p1655
tp1656
Rp1657
(dp1658
g374
Nsg375
I00
sg376
Nsg377
I00
sg378
I00
sbag367
(g368
g369
S'0.00 IN'
p1659
tp1660
Rp1661
(dp1662
g374
Nsg375
I00
sg376
Nsg377
I00
sg378
I00
sbag367
(g368
g369
S'0.00 IN'
p1663
tp1664
Rp1665
(dp1666
g374
Nsg375
I00
sg376
Nsg377
I00
sg378
I00
sbag367
(g368
g369
S'1.16 IN'
p1667
tp1668
Rp1669
(dp1670
g374
Nsg375
I00
sg376
Nsg377
I00
sg378
I00
sbag367
(g368
g369
S'0.00 IN'
p1671
tp1672
Rp1673
(dp1674
g374
Nsg375
I00
sg376
Nsg377
I00
sg378
I00
sbag367
(g368
g369
S'0.00 IN'
p1675
tp1676
Rp1677
(dp1678
g374
Nsg375
I00
sg376
Nsg377
I00
sg378
I00
sbag367
(g368
g369
S'0.00 IN'
p1679
tp1680
Rp1681
(dp1682
g374
Nsg375
I00
sg376
Nsg377
I00
sg378
I00
sbag367
(g368
g369
S'0.00 IN'
p1683
tp1684
Rp1685
(dp1686
g374
Nsg375
I00
sg376
Nsg377
I00
sg378
I00
sbag367
(g368
g369
S'0.00 IN'
p1687
tp1688
Rp1689
(dp1690
g374
Nsg375
I00
sg376
Nsg377
I00
sg378
I00
sbag367
(g368
g369
S'0.00 IN'
p1691
tp1692
Rp1693
(dp1694
g374
Nsg375
I00
sg376
Nsg377
I00
sg378
I00
sbag367
(g368
g369
S'0.00 IN'
p1695
tp1696
Rp1697
(dp1698
g374
Nsg375
I00
sg376
Nsg377
I00
sg378
I00
sbag367
(g368
g369
S'0.00 IN'
p1699
tp1700
Rp1701
(dp1702
g374
Nsg375
I00
sg376
Nsg377
I00
sg378
I00
sbag367
(g368
g369
S'0.03 IN'
p1703
tp1704
Rp1705
(dp1706
g374
Nsg375
I00
sg376
Nsg377
I00
sg378
I00
sbag367
(g368
g369
S'0.00 IN'
p1707
tp1708
Rp1709
(dp1710
g374
Nsg375
I00
sg376
Nsg377
I00
sg378
I00
sbag367
(g368
g369
S'0.13 IN'
p1711
tp1712
Rp1713
(dp1714
g374
Nsg375
I00
sg376
Nsg377
I00
sg378
I00
sbag367
(g368
g369
S'0.24 IN'
p1715
tp1716
Rp1717
(dp1718
g374
Nsg375
I00
sg376
Nsg377
I00
sg378
I00
sbag367
(g368
g369
S'0.10 IN'
p1719
tp1720
Rp1721
(dp1722
g374
Nsg375
I00
sg376
Nsg377
I00
sg378
I00
sbag367
(g368
g369
S'0.00 IN'
p1723
tp1724
Rp1725
(dp1726
g374
Nsg375
I00
sg376
Nsg377
I00
sg378
I00
sbag367
(g368
g369
S'0.00 IN'
p1727
tp1728
Rp1729
(dp1730
g374
Nsg375
I00
sg376
Nsg377
I00
sg378
I00
sbag367
(g368
g369
S'0.00 IN'
p1731
tp1732
Rp1733
(dp1734
g374
Nsg375
I00
sg376
Nsg377
I00
sg378
I00
sbag367
(g368
g369
S'0.00 IN'
p1735
tp1736
Rp1737
(dp1738
g374
Nsg375
I00
sg376
Nsg377
I00
sg378
I00
sbag367
(g368
g369
S'0.00 IN'
p1739
tp1740
Rp1741
(dp1742
g374
Nsg375
I00
sg376
Nsg377
I00
sg378
I00
sbag367
(g368
g369
S'0.00 IN'
p1743
tp1744
Rp1745
(dp1746
g374
Nsg375
I00
sg376
Nsg377
I00
sg378
I00
sbag367
(g368
g369
S'0.00 IN'
p1747
tp1748
Rp1749
(dp1750
g374
Nsg375
I00
sg376
Nsg377
I00
sg378
I00
sbag367
(g368
g369
S'0.00 IN'
p1751
tp1752
Rp1753
(dp1754
g374
Nsg375
I00
sg376
Nsg377
I00
sg378
I00
sbag367
(g368
g369
S'0.00 IN'
p1755
tp1756
Rp1757
(dp1758
g374
Nsg375
I00
sg376
Nsg377
I00
sg378
I00
sbag367
(g368
g369
S'0.00 IN'
p1759
tp1760
Rp1761
(dp1762
g374
Nsg375
I00
sg376
Nsg377
I00
sg378
I00
sbag367
(g368
g369
S'0.00 IN'
p1763
tp1764
Rp1765
(dp1766
g374
Nsg375
I00
sg376
Nsg377
I00
sg378
I00
sbag367
(g368
g369
S'0.39 IN'
p1767
tp1768
Rp1769
(dp1770
g374
Nsg375
I00
sg376
Nsg377
I00
sg378
I00
sbag367
(g368
g369
S'0.11 IN'
p1771
tp1772
Rp1773
(dp1774
g374
Nsg375
I00
sg376
Nsg377
I00
sg378
I00
sbag367
(g368
g369
S'0.05 IN'
p1775
tp1776
Rp1777
(dp1778
g374
Nsg375
I00
sg376
Nsg377
I00
sg378
I00
sbag367
(g368
g369
S'0.88 IN'
p1779
tp1780
Rp1781
(dp1782
g374
Nsg375
I00
sg376
Nsg377
I00
sg378
I00
sbag367
(g368
g369
S'0.01 IN'
p1783
tp1784
Rp1785
(dp1786
g374
Nsg375
I00
sg376
Nsg377
I00
sg378
I00
sbag367
(g368
g369
S'0.00 IN'
p1787
tp1788
Rp1789
(dp1790
g374
Nsg375
I00
sg376
Nsg377
I00
sg378
I00
sbag367
(g368
g369
S'0.00 IN'
p1791
tp1792
Rp1793
(dp1794
g374
Nsg375
I00
sg376
Nsg377
I00
sg378
I00
sbag367
(g368
g369
S'0.00 IN'
p1795
tp1796
Rp1797
(dp1798
g374
Nsg375
I00
sg376
Nsg377
I00
sg378
I00
sbag367
(g368
g369
S'0.18 IN'
p1799
tp1800
Rp1801
(dp1802
g374
Nsg375
I00
sg376
Nsg377
I00
sg378
I00
sbag367
(g368
g369
S'1.46 IN'
p1803
tp1804
Rp1805
(dp1806
g374
Nsg375
I00
sg376
Nsg377
I00
sg378
I00
sbag367
(g368
g369
S'0.01 IN'
p1807
tp1808
Rp1809
(dp1810
g374
Nsg375
I00
sg376
Nsg377
I00
sg378
I00
sbag367
(g368
g369
S'0.03 IN'
p1811
tp1812
Rp1813
(dp1814
g374
Nsg375
I00
sg376
Nsg377
I00
sg378
I00
sbag367
(g368
g369
S'0.14 IN'
p1815
tp1816
Rp1817
(dp1818
g374
Nsg375
I00
sg376
Nsg377
I00
sg378
I00
sbag367
(g368
g369
S'0.02 IN'
p1819
tp1820
Rp1821
(dp1822
g374
Nsg375
I00
sg376
Nsg377
I00
sg378
I00
sbag367
(g368
g369
S'0.37 IN'
p1823
tp1824
Rp1825
(dp1826
g374
Nsg375
I00
sg376
Nsg377
I00
sg378
I00
sbag367
(g368
g369
S'0.13 IN'
p1827
tp1828
Rp1829
(dp1830
g374
Nsg375
I00
sg376
Nsg377
I00
sg378
I00
sbag367
(g368
g369
S'0.17 IN'
p1831
tp1832
Rp1833
(dp1834
g374
Nsg375
I00
sg376
Nsg377
I00
sg378
I00
sba(lp1835
g367
(g368
g369
S'No data.'
p1836
tp1837
Rp1838
(dp1839
g374
Nsg375
I00
sg376
Nsg377
I00
sg378
I00
sbag367
(g368
g369
S'No data.'
p1840
tp1841
Rp1842
(dp1843
g374
Nsg375
I00
sg376
Nsg377
I00
sg378
I00
sbag367
(g368
g369
S'No data.'
p1844
tp1845
Rp1846
(dp1847
g374
Nsg375
I00
sg376
Nsg377
I00
sg378
I00
sbag367
(g368
g369
S'No data.'
p1848
tp1849
Rp1850
(dp1851
g374
Nsg375
I00
sg376
Nsg377
I00
sg378
I00
sbag367
(g368
g369
S'No data.'
p1852
tp1853
Rp1854
(dp1855
g374
Nsg375
I00
sg376
Nsg377
I00
sg378
I00
sbag367
(g368
g369
S'1.20 IN'
p1856
tp1857
Rp1858
(dp1859
g374
Nsg375
I00
sg376
Nsg377
I00
sg378
I00
sbag367
(g368
g369
S'1.20 IN'
p1860
tp1861
Rp1862
(dp1863
g374
Nsg375
I00
sg376
Nsg377
I00
sg378
I00
sbag367
(g368
g369
S'1.20 IN'
p1864
tp1865
Rp1866
(dp1867
g374
Nsg375
I00
sg376
Nsg377
I00
sg378
I00
sbag367
(g368
g369
S'1.20 IN'
p1868
tp1869
Rp1870
(dp1871
g374
Nsg375
I00
sg376
Nsg377
I00
sg378
I00
sbag367
(g368
g369
S'1.20 IN'
p1872
tp1873
Rp1874
(dp1875
g374
Nsg375
I00
sg376
Nsg377
I00
sg378
I00
sbag367
(g368
g369
S'1.20 IN'
p1876
tp1877
Rp1878
(dp1879
g374
Nsg375
I00
sg376
Nsg377
I00
sg378
I00
sbag367
(g368
g369
S'No data.'
p1880
tp1881
Rp1882
(dp1883
g374
Nsg375
I00
sg376
Nsg377
I00
sg378
I00
sbag367
(g368
g369
S'No data.'
p1884
tp1885
Rp1886
(dp1887
g374
Nsg375
I00
sg376
Nsg377
I00
sg378
I00
sbag367
(g368
g369
S'No data.'
p1888
tp1889
Rp1890
(dp1891
g374
Nsg375
I00
sg376
Nsg377
I00
sg378
I00
sbag367
(g368
g369
S'No data.'
p1892
tp1893
Rp1894
(dp1895
g374
Nsg375
I00
sg376
Nsg377
I00
sg378
I00
sbag367
(g368
g369
S'No data.'
p1896
tp1897
Rp1898
(dp1899
g374
Nsg375
I00
sg376
Nsg377
I00
sg378
I00
sbag367
(g368
g369
S'No data.'
p1900
tp1901
Rp1902
(dp1903
g374
Nsg375
I00
sg376
Nsg377
I00
sg378
I00
sbag367
(g368
g369
S'No data.'
p1904
tp1905
Rp1906
(dp1907
g374
Nsg375
I00
sg376
Nsg377
I00
sg378
I00
sbag367
(g368
g369
S'No data.'
p1908
tp1909
Rp1910
(dp1911
g374
Nsg375
I00
sg376
Nsg377
I00
sg378
I00
sbag367
(g368
g369
S'No data.'
p1912
tp1913
Rp1914
(dp1915
g374
Nsg375
I00
sg376
Nsg377
I00
sg378
I00
sbag367
(g368
g369
S'No data.'
p1916
tp1917
Rp1918
(dp1919
g374
Nsg375
I00
sg376
Nsg377
I00
sg378
I00
sbag367
(g368
g369
S'No data.'
p1920
tp1921
Rp1922
(dp1923
g374
Nsg375
I00
sg376
Nsg377
I00
sg378
I00
sbag367
(g368
g369
S'No data.'
p1924
tp1925
Rp1926
(dp1927
g374
Nsg375
I00
sg376
Nsg377
I00
sg378
I00
sbag367
(g368
g369
S'2.00 IN'
p1928
tp1929
Rp1930
(dp1931
g374
Nsg375
I00
sg376
Nsg377
I00
sg378
I00
sbag367
(g368
g369
S'1.20 IN'
p1932
tp1933
Rp1934
(dp1935
g374
Nsg375
I00
sg376
Nsg377
I00
sg378
I00
sbag367
(g368
g369
S'5.10 IN'
p1936
tp1937
Rp1938
(dp1939
g374
Nsg375
I00
sg376
Nsg377
I00
sg378
I00
sbag367
(g368
g369
S'7.90 IN'
p1940
tp1941
Rp1942
(dp1943
g374
Nsg375
I00
sg376
Nsg377
I00
sg378
I00
sbag367
(g368
g369
S'5.90 IN'
p1944
tp1945
Rp1946
(dp1947
g374
Nsg375
I00
sg376
Nsg377
I00
sg378
I00
sbag367
(g368
g369
S'5.90 IN'
p1948
tp1949
Rp1950
(dp1951
g374
Nsg375
I00
sg376
Nsg377
I00
sg378
I00
sbag367
(g368
g369
S'5.90 IN'
p1952
tp1953
Rp1954
(dp1955
g374
Nsg375
I00
sg376
Nsg377
I00
sg378
I00
sbag367
(g368
g369
S'5.10 IN'
p1956
tp1957
Rp1958
(dp1959
g374
Nsg375
I00
sg376
Nsg377
I00
sg378
I00
sbag367
(g368
g369
S'5.10 IN'
p1960
tp1961
Rp1962
(dp1963
g374
Nsg375
I00
sg376
Nsg377
I00
sg378
I00
sbag367
(g368
g369
S'9.80 IN'
p1964
tp1965
Rp1966
(dp1967
g374
Nsg375
I00
sg376
Nsg377
I00
sg378
I00
sbag367
(g368
g369
S'9.10 IN'
p1968
tp1969
Rp1970
(dp1971
g374
Nsg375
I00
sg376
Nsg377
I00
sg378
I00
sbag367
(g368
g369
S'7.10 IN'
p1972
tp1973
Rp1974
(dp1975
g374
Nsg375
I00
sg376
Nsg377
I00
sg378
I00
sbag367
(g368
g369
S'5.90 IN'
p1976
tp1977
Rp1978
(dp1979
g374
Nsg375
I00
sg376
Nsg377
I00
sg378
I00
sbag367
(g368
g369
S'5.90 IN'
p1980
tp1981
Rp1982
(dp1983
g374
Nsg375
I00
sg376
Nsg377
I00
sg378
I00
sbag367
(g368
g369
S'3.90 IN'
p1984
tp1985
Rp1986
(dp1987
g374
Nsg375
I00
sg376
Nsg377
I00
sg378
I00
sbag367
(g368
g369
S'3.90 IN'
p1988
tp1989
Rp1990
(dp1991
g374
Nsg375
I00
sg376
Nsg377
I00
sg378
I00
sbag367
(g368
g369
S'3.90 IN'
p1992
tp1993
Rp1994
(dp1995
g374
Nsg375
I00
sg376
Nsg377
I00
sg378
I00
sbag367
(g368
g369
S'3.90 IN'
p1996
tp1997
Rp1998
(dp1999
g374
Nsg375
I00
sg376
Nsg377
I00
sg378
I00
sbag367
(g368
g369
S'3.90 IN'
p2000
tp2001
Rp2002
(dp2003
g374
Nsg375
I00
sg376
Nsg377
I00
sg378
I00
sbag367
(g368
g369
S'3.90 IN'
p2004
tp2005
Rp2006
(dp2007
g374
Nsg375
I00
sg376
Nsg377
I00
sg378
I00
sbag367
(g368
g369
S'3.90 IN'
p2008
tp2009
Rp2010
(dp2011
g374
Nsg375
I00
sg376
Nsg377
I00
sg378
I00
sbag367
(g368
g369
S'5.10 IN'
p2012
tp2013
Rp2014
(dp2015
g374
Nsg375
I00
sg376
Nsg377
I00
sg378
I00
sbag367
(g368
g369
S'5.10 IN'
p2016
tp2017
Rp2018
(dp2019
g374
Nsg375
I00
sg376
Nsg377
I00
sg378
I00
sbag367
(g368
g369
S'5.10 IN'
p2020
tp2021
Rp2022
(dp2023
g374
Nsg375
I00
sg376
Nsg377
I00
sg378
I00
sbag367
(g368
g369
S'7.10 IN'
p2024
tp2025
Rp2026
(dp2027
g374
Nsg375
I00
sg376
Nsg377
I00
sg378
I00
sbag367
(g368
g369
S'5.10 IN'
p2028
tp2029
Rp2030
(dp2031
g374
Nsg375
I00
sg376
Nsg377
I00
sg378
I00
sbag367
(g368
g369
S'5.10 IN'
p2032
tp2033
Rp2034
(dp2035
g374
Nsg375
I00
sg376
Nsg377
I00
sg378
I00
sbag367
(g368
g369
S'5.10 IN'
p2036
tp2037
Rp2038
(dp2039
g374
Nsg375
I00
sg376
Nsg377
I00
sg378
I00
sbag367
(g368
g369
S'7.10 IN'
p2040
tp2041
Rp2042
(dp2043
g374
Nsg375
I00
sg376
Nsg377
I00
sg378
I00
sbag367
(g368
g369
S'5.90 IN'
p2044
tp2045
Rp2046
(dp2047
g374
Nsg375
I00
sg376
Nsg377
I00
sg378
I00
sbag367
(g368
g369
S'5.90 IN'
p2048
tp2049
Rp2050
(dp2051
g374
Nsg375
I00
sg376
Nsg377
I00
sg378
I00
sbag367
(g368
g369
S'5.90 IN'
p2052
tp2053
Rp2054
(dp2055
g374
Nsg375
I00
sg376
Nsg377
I00
sg378
I00
sbag367
(g368
g369
S'5.10 IN'
p2056
tp2057
Rp2058
(dp2059
g374
Nsg375
I00
sg376
Nsg377
I00
sg378
I00
sbag367
(g368
g369
S'5.10 IN'
p2060
tp2061
Rp2062
(dp2063
g374
Nsg375
I00
sg376
Nsg377
I00
sg378
I00
sbag367
(g368
g369
S'5.10 IN'
p2064
tp2065
Rp2066
(dp2067
g374
Nsg375
I00
sg376
Nsg377
I00
sg378
I00
sbag367
(g368
g369
S'3.10 IN'
p2068
tp2069
Rp2070
(dp2071
g374
Nsg375
I00
sg376
Nsg377
I00
sg378
I00
sbag367
(g368
g369
S'7.10 IN'
p2072
tp2073
Rp2074
(dp2075
g374
Nsg375
I00
sg376
Nsg377
I00
sg378
I00
sbag367
(g368
g369
S'5.10 IN'
p2076
tp2077
Rp2078
(dp2079
g374
Nsg375
I00
sg376
Nsg377
I00
sg378
I00
sbag367
(g368
g369
S'5.90 IN'
p2080
tp2081
Rp2082
(dp2083
g374
Nsg375
I00
sg376
Nsg377
I00
sg378
I00
sbag367
(g368
g369
S'3.90 IN'
p2084
tp2085
Rp2086
(dp2087
g374
Nsg375
I00
sg376
Nsg377
I00
sg378
I00
sbag367
(g368
g369
S'11.00 IN'
p2088
tp2089
Rp2090
(dp2091
g374
Nsg375
I00
sg376
Nsg377
I00
sg378
I00
sbag367
(g368
g369
S'5.90 IN'
p2092
tp2093
Rp2094
(dp2095
g374
Nsg375
I00
sg376
Nsg377
I00
sg378
I00
sbag367
(g368
g369
S'5.10 IN'
p2096
tp2097
Rp2098
(dp2099
g374
Nsg375
I00
sg376
Nsg377
I00
sg378
I00
sbag367
(g368
g369
S'3.90 IN'
p2100
tp2101
Rp2102
(dp2103
g374
Nsg375
I00
sg376
Nsg377
I00
sg378
I00
sbag367
(g368
g369
S'2.00 IN'
p2104
tp2105
Rp2106
(dp2107
g374
Nsg375
I00
sg376
Nsg377
I00
sg378
I00
sbag367
(g368
g369
S'1.20 IN'
p2108
tp2109
Rp2110
(dp2111
g374
Nsg375
I00
sg376
Nsg377
I00
sg378
I00
sbag367
(g368
g369
S'1.20 IN'
p2112
tp2113
Rp2114
(dp2115
g374
Nsg375
I00
sg376
Nsg377
I00
sg378
I00
sbag367
(g368
g369
S'No data.'
p2116
tp2117
Rp2118
(dp2119
g374
Nsg375
I00
sg376
Nsg377
I00
sg378
I00
sbag367
(g368
g369
S'No data.'
p2120
tp2121
Rp2122
(dp2123
g374
Nsg375
I00
sg376
Nsg377
I00
sg378
I00
sbag367
(g368
g369
S'No data.'
p2124
tp2125
Rp2126
(dp2127
g374
Nsg375
I00
sg376
Nsg377
I00
sg378
I00
sbag367
(g368
g369
S'No data.'
p2128
tp2129
Rp2130
(dp2131
g374
Nsg375
I00
sg376
Nsg377
I00
sg378
I00
sbag367
(g368
g369
S'No data.'
p2132
tp2133
Rp2134
(dp2135
g374
Nsg375
I00
sg376
Nsg377
I00
sg378
I00
sbag367
(g368
g369
S'No data.'
p2136
tp2137
Rp2138
(dp2139
g374
Nsg375
I00
sg376
Nsg377
I00
sg378
I00
sbag367
(g368
g369
S'No data.'
p2140
tp2141
Rp2142
(dp2143
g374
Nsg375
I00
sg376
Nsg377
I00
sg378
I00
sbag367
(g368
g369
S'No data.'
p2144
tp2145
Rp2146
(dp2147
g374
Nsg375
I00
sg376
Nsg377
I00
sg378
I00
sbag367
(g368
g369
S'5.10 IN'
p2148
tp2149
Rp2150
(dp2151
g374
Nsg375
I00
sg376
Nsg377
I00
sg378
I00
sbag367
(g368
g369
S'2.00 IN'
p2152
tp2153
Rp2154
(dp2155
g374
Nsg375
I00
sg376
Nsg377
I00
sg378
I00
sbag367
(g368
g369
S'3.90 IN'
p2156
tp2157
Rp2158
(dp2159
g374
Nsg375
I00
sg376
Nsg377
I00
sg378
I00
sbag367
(g368
g369
S'No data.'
p2160
tp2161
Rp2162
(dp2163
g374
Nsg375
I00
sg376
Nsg377
I00
sg378
I00
sbag367
(g368
g369
S'No data.'
p2164
tp2165
Rp2166
(dp2167
g374
Nsg375
I00
sg376
Nsg377
I00
sg378
I00
sbag367
(g368
g369
S'No data.'
p2168
tp2169
Rp2170
(dp2171
g374
Nsg375
I00
sg376
Nsg377
I00
sg378
I00
sbag367
(g368
g369
S'No data.'
p2172
tp2173
Rp2174
(dp2175
g374
Nsg375
I00
sg376
Nsg377
I00
sg378
I00
sbag367
(g368
g369
S'No data.'
p2176
tp2177
Rp2178
(dp2179
g374
Nsg375
I00
sg376
Nsg377
I00
sg378
I00
sbag367
(g368
g369
S'No data.'
p2180
tp2181
Rp2182
(dp2183
g374
Nsg375
I00
sg376
Nsg377
I00
sg378
I00
sbag367
(g368
g369
S'No data.'
p2184
tp2185
Rp2186
(dp2187
g374
Nsg375
I00
sg376
Nsg377
I00
sg378
I00
sbag367
(g368
g369
S'No data.'
p2188
tp2189
Rp2190
(dp2191
g374
Nsg375
I00
sg376
Nsg377
I00
sg378
I00
sbag367
(g368
g369
S'No data.'
p2192
tp2193
Rp2194
(dp2195
g374
Nsg375
I00
sg376
Nsg377
I00
sg378
I00
sbag367
(g368
g369
S'No data.'
p2196
tp2197
Rp2198
(dp2199
g374
Nsg375
I00
sg376
Nsg377
I00
sg378
I00
sbag367
(g368
g369
S'No data.'
p2200
tp2201
Rp2202
(dp2203
g374
Nsg375
I00
sg376
Nsg377
I00
sg378
I00
sbag367
(g368
g369
S'No data.'
p2204
tp2205
Rp2206
(dp2207
g374
Nsg375
I00
sg376
Nsg377
I00
sg378
I00
sbag367
(g368
g369
S'No data.'
p2208
tp2209
Rp2210
(dp2211
g374
Nsg375
I00
sg376
Nsg377
I00
sg378
I00
sbag367
(g368
g369
S'No data.'
p2212
tp2213
Rp2214
(dp2215
g374
Nsg375
I00
sg376
Nsg377
I00
sg378
I00
sbag367
(g368
g369
S'No data.'
p2216
tp2217
Rp2218
(dp2219
g374
Nsg375
I00
sg376
Nsg377
I00
sg378
I00
sbag367
(g368
g369
S'No data.'
p2220
tp2221
Rp2222
(dp2223
g374
Nsg375
I00
sg376
Nsg377
I00
sg378
I00
sbag367
(g368
g369
S'No data.'
p2224
tp2225
Rp2226
(dp2227
g374
Nsg375
I00
sg376
Nsg377
I00
sg378
I00
sbag367
(g368
g369
S'No data.'
p2228
tp2229
Rp2230
(dp2231
g374
Nsg375
I00
sg376
Nsg377
I00
sg378
I00
sbag367
(g368
g369
S'No data.'
p2232
tp2233
Rp2234
(dp2235
g374
Nsg375
I00
sg376
Nsg377
I00
sg378
I00
sbag367
(g368
g369
S'No data.'
p2236
tp2237
Rp2238
(dp2239
g374
Nsg375
I00
sg376
Nsg377
I00
sg378
I00
sbag367
(g368
g369
S'No data.'
p2240
tp2241
Rp2242
(dp2243
g374
Nsg375
I00
sg376
Nsg377
I00
sg378
I00
sbag367
(g368
g369
S'No data.'
p2244
tp2245
Rp2246
(dp2247
g374
Nsg375
I00
sg376
Nsg377
I00
sg378
I00
sbag367
(g368
g369
S'No data.'
p2248
tp2249
Rp2250
(dp2251
g374
Nsg375
I00
sg376
Nsg377
I00
sg378
I00
sbag367
(g368
g369
S'No data.'
p2252
tp2253
Rp2254
(dp2255
g374
Nsg375
I00
sg376
Nsg377
I00
sg378
I00
sbag367
(g368
g369
S'No data.'
p2256
tp2257
Rp2258
(dp2259
g374
Nsg375
I00
sg376
Nsg377
I00
sg378
I00
sbag367
(g368
g369
S'No data.'
p2260
tp2261
Rp2262
(dp2263
g374
Nsg375
I00
sg376
Nsg377
I00
sg378
I00
sbag367
(g368
g369
S'No data.'
p2264
tp2265
Rp2266
(dp2267
g374
Nsg375
I00
sg376
Nsg377
I00
sg378
I00
sbag367
(g368
g369
S'No data.'
p2268
tp2269
Rp2270
(dp2271
g374
Nsg375
I00
sg376
Nsg377
I00
sg378
I00
sbag367
(g368
g369
S'No data.'
p2272
tp2273
Rp2274
(dp2275
g374
Nsg375
I00
sg376
Nsg377
I00
sg378
I00
sbag367
(g368
g369
S'No data.'
p2276
tp2277
Rp2278
(dp2279
g374
Nsg375
I00
sg376
Nsg377
I00
sg378
I00
sbag367
(g368
g369
S'No data.'
p2280
tp2281
Rp2282
(dp2283
g374
Nsg375
I00
sg376
Nsg377
I00
sg378
I00
sbag367
(g368
g369
S'No data.'
p2284
tp2285
Rp2286
(dp2287
g374
Nsg375
I00
sg376
Nsg377
I00
sg378
I00
sbag367
(g368
g369
S'No data.'
p2288
tp2289
Rp2290
(dp2291
g374
Nsg375
I00
sg376
Nsg377
I00
sg378
I00
sbag367
(g368
g369
S'No data.'
p2292
tp2293
Rp2294
(dp2295
g374
Nsg375
I00
sg376
Nsg377
I00
sg378
I00
sbag367
(g368
g369
S'No data.'
p2296
tp2297
Rp2298
(dp2299
g374
Nsg375
I00
sg376
Nsg377
I00
sg378
I00
sbag367
(g368
g369
S'No data.'
p2300
tp2301
Rp2302
(dp2303
g374
Nsg375
I00
sg376
Nsg377
I00
sg378
I00
sbag367
(g368
g369
S'No data.'
p2304
tp2305
Rp2306
(dp2307
g374
Nsg375
I00
sg376
Nsg377
I00
sg378
I00
sbag367
(g368
g369
S'No data.'
p2308
tp2309
Rp2310
(dp2311
g374
Nsg375
I00
sg376
Nsg377
I00
sg378
I00
sbag367
(g368
g369
S'No data.'
p2312
tp2313
Rp2314
(dp2315
g374
Nsg375
I00
sg376
Nsg377
I00
sg378
I00
sbag367
(g368
g369
S'No data.'
p2316
tp2317
Rp2318
(dp2319
g374
Nsg375
I00
sg376
Nsg377
I00
sg378
I00
sbag367
(g368
g369
S'No data.'
p2320
tp2321
Rp2322
(dp2323
g374
Nsg375
I00
sg376
Nsg377
I00
sg378
I00
sbag367
(g368
g369
S'No data.'
p2324
tp2325
Rp2326
(dp2327
g374
Nsg375
I00
sg376
Nsg377
I00
sg378
I00
sbag367
(g368
g369
S'No data.'
p2328
tp2329
Rp2330
(dp2331
g374
Nsg375
I00
sg376
Nsg377
I00
sg378
I00
sbag367
(g368
g369
S'No data.'
p2332
tp2333
Rp2334
(dp2335
g374
Nsg375
I00
sg376
Nsg377
I00
sg378
I00
sbag367
(g368
g369
S'No data.'
p2336
tp2337
Rp2338
(dp2339
g374
Nsg375
I00
sg376
Nsg377
I00
sg378
I00
sbag367
(g368
g369
S'No data.'
p2340
tp2341
Rp2342
(dp2343
g374
Nsg375
I00
sg376
Nsg377
I00
sg378
I00
sbag367
(g368
g369
S'No data.'
p2344
tp2345
Rp2346
(dp2347
g374
Nsg375
I00
sg376
Nsg377
I00
sg378
I00
sbag367
(g368
g369
S'No data.'
p2348
tp2349
Rp2350
(dp2351
g374
Nsg375
I00
sg376
Nsg377
I00
sg378
I00
sbag367
(g368
g369
S'No data.'
p2352
tp2353
Rp2354
(dp2355
g374
Nsg375
I00
sg376
Nsg377
I00
sg378
I00
sbag367
(g368
g369
S'No data.'
p2356
tp2357
Rp2358
(dp2359
g374
Nsg375
I00
sg376
Nsg377
I00
sg378
I00
sbag367
(g368
g369
S'No data.'
p2360
tp2361
Rp2362
(dp2363
g374
Nsg375
I00
sg376
Nsg377
I00
sg378
I00
sbag367
(g368
g369
S'No data.'
p2364
tp2365
Rp2366
(dp2367
g374
Nsg375
I00
sg376
Nsg377
I00
sg378
I00
sbag367
(g368
g369
S'No data.'
p2368
tp2369
Rp2370
(dp2371
g374
Nsg375
I00
sg376
Nsg377
I00
sg378
I00
sbag367
(g368
g369
S'No data.'
p2372
tp2373
Rp2374
(dp2375
g374
Nsg375
I00
sg376
Nsg377
I00
sg378
I00
sbag367
(g368
g369
S'No data.'
p2376
tp2377
Rp2378
(dp2379
g374
Nsg375
I00
sg376
Nsg377
I00
sg378
I00
sbag367
(g368
g369
S'No data.'
p2380
tp2381
Rp2382
(dp2383
g374
Nsg375
I00
sg376
Nsg377
I00
sg378
I00
sbag367
(g368
g369
S'No data.'
p2384
tp2385
Rp2386
(dp2387
g374
Nsg375
I00
sg376
Nsg377
I00
sg378
I00
sbag367
(g368
g369
S'No data.'
p2388
tp2389
Rp2390
(dp2391
g374
Nsg375
I00
sg376
Nsg377
I00
sg378
I00
sbag367
(g368
g369
S'No data.'
p2392
tp2393
Rp2394
(dp2395
g374
Nsg375
I00
sg376
Nsg377
I00
sg378
I00
sbag367
(g368
g369
S'No data.'
p2396
tp2397
Rp2398
(dp2399
g374
Nsg375
I00
sg376
Nsg377
I00
sg378
I00
sbag367
(g368
g369
S'No data.'
p2400
tp2401
Rp2402
(dp2403
g374
Nsg375
I00
sg376
Nsg377
I00
sg378
I00
sbag367
(g368
g369
S'No data.'
p2404
tp2405
Rp2406
(dp2407
g374
Nsg375
I00
sg376
Nsg377
I00
sg378
I00
sbag367
(g368
g369
S'No data.'
p2408
tp2409
Rp2410
(dp2411
g374
Nsg375
I00
sg376
Nsg377
I00
sg378
I00
sbag367
(g368
g369
S'No data.'
p2412
tp2413
Rp2414
(dp2415
g374
Nsg375
I00
sg376
Nsg377
I00
sg378
I00
sbag367
(g368
g369
S'No data.'
p2416
tp2417
Rp2418
(dp2419
g374
Nsg375
I00
sg376
Nsg377
I00
sg378
I00
sbag367
(g368
g369
S'No data.'
p2420
tp2421
Rp2422
(dp2423
g374
Nsg375
I00
sg376
Nsg377
I00
sg378
I00
sbag367
(g368
g369
S'No data.'
p2424
tp2425
Rp2426
(dp2427
g374
Nsg375
I00
sg376
Nsg377
I00
sg378
I00
sbag367
(g368
g369
S'No data.'
p2428
tp2429
Rp2430
(dp2431
g374
Nsg375
I00
sg376
Nsg377
I00
sg378
I00
sbag367
(g368
g369
S'No data.'
p2432
tp2433
Rp2434
(dp2435
g374
Nsg375
I00
sg376
Nsg377
I00
sg378
I00
sbag367
(g368
g369
S'No data.'
p2436
tp2437
Rp2438
(dp2439
g374
Nsg375
I00
sg376
Nsg377
I00
sg378
I00
sbag367
(g368
g369
S'No data.'
p2440
tp2441
Rp2442
(dp2443
g374
Nsg375
I00
sg376
Nsg377
I00
sg378
I00
sbag367
(g368
g369
S'No data.'
p2444
tp2445
Rp2446
(dp2447
g374
Nsg375
I00
sg376
Nsg377
I00
sg378
I00
sbag367
(g368
g369
S'No data.'
p2448
tp2449
Rp2450
(dp2451
g374
Nsg375
I00
sg376
Nsg377
I00
sg378
I00
sbag367
(g368
g369
S'No data.'
p2452
tp2453
Rp2454
(dp2455
g374
Nsg375
I00
sg376
Nsg377
I00
sg378
I00
sbag367
(g368
g369
S'No data.'
p2456
tp2457
Rp2458
(dp2459
g374
Nsg375
I00
sg376
Nsg377
I00
sg378
I00
sbag367
(g368
g369
S'No data.'
p2460
tp2461
Rp2462
(dp2463
g374
Nsg375
I00
sg376
Nsg377
I00
sg378
I00
sbag367
(g368
g369
S'No data.'
p2464
tp2465
Rp2466
(dp2467
g374
Nsg375
I00
sg376
Nsg377
I00
sg378
I00
sbag367
(g368
g369
S'No data.'
p2468
tp2469
Rp2470
(dp2471
g374
Nsg375
I00
sg376
Nsg377
I00
sg378
I00
sbag367
(g368
g369
S'No data.'
p2472
tp2473
Rp2474
(dp2475
g374
Nsg375
I00
sg376
Nsg377
I00
sg378
I00
sbag367
(g368
g369
S'No data.'
p2476
tp2477
Rp2478
(dp2479
g374
Nsg375
I00
sg376
Nsg377
I00
sg378
I00
sbag367
(g368
g369
S'No data.'
p2480
tp2481
Rp2482
(dp2483
g374
Nsg375
I00
sg376
Nsg377
I00
sg378
I00
sbag367
(g368
g369
S'No data.'
p2484
tp2485
Rp2486
(dp2487
g374
Nsg375
I00
sg376
Nsg377
I00
sg378
I00
sbag367
(g368
g369
S'No data.'
p2488
tp2489
Rp2490
(dp2491
g374
Nsg375
I00
sg376
Nsg377
I00
sg378
I00
sbag367
(g368
g369
S'No data.'
p2492
tp2493
Rp2494
(dp2495
g374
Nsg375
I00
sg376
Nsg377
I00
sg378
I00
sbag367
(g368
g369
S'No data.'
p2496
tp2497
Rp2498
(dp2499
g374
Nsg375
I00
sg376
Nsg377
I00
sg378
I00
sbag367
(g368
g369
S'No data.'
p2500
tp2501
Rp2502
(dp2503
g374
Nsg375
I00
sg376
Nsg377
I00
sg378
I00
sbag367
(g368
g369
S'No data.'
p2504
tp2505
Rp2506
(dp2507
g374
Nsg375
I00
sg376
Nsg377
I00
sg378
I00
sbag367
(g368
g369
S'No data.'
p2508
tp2509
Rp2510
(dp2511
g374
Nsg375
I00
sg376
Nsg377
I00
sg378
I00
sbag367
(g368
g369
S'No data.'
p2512
tp2513
Rp2514
(dp2515
g374
Nsg375
I00
sg376
Nsg377
I00
sg378
I00
sbag367
(g368
g369
S'No data.'
p2516
tp2517
Rp2518
(dp2519
g374
Nsg375
I00
sg376
Nsg377
I00
sg378
I00
sbag367
(g368
g369
S'No data.'
p2520
tp2521
Rp2522
(dp2523
g374
Nsg375
I00
sg376
Nsg377
I00
sg378
I00
sbag367
(g368
g369
S'No data.'
p2524
tp2525
Rp2526
(dp2527
g374
Nsg375
I00
sg376
Nsg377
I00
sg378
I00
sbag367
(g368
g369
S'No data.'
p2528
tp2529
Rp2530
(dp2531
g374
Nsg375
I00
sg376
Nsg377
I00
sg378
I00
sbag367
(g368
g369
S'No data.'
p2532
tp2533
Rp2534
(dp2535
g374
Nsg375
I00
sg376
Nsg377
I00
sg378
I00
sbag367
(g368
g369
S'No data.'
p2536
tp2537
Rp2538
(dp2539
g374
Nsg375
I00
sg376
Nsg377
I00
sg378
I00
sbag367
(g368
g369
S'No data.'
p2540
tp2541
Rp2542
(dp2543
g374
Nsg375
I00
sg376
Nsg377
I00
sg378
I00
sbag367
(g368
g369
S'No data.'
p2544
tp2545
Rp2546
(dp2547
g374
Nsg375
I00
sg376
Nsg377
I00
sg378
I00
sbag367
(g368
g369
S'No data.'
p2548
tp2549
Rp2550
(dp2551
g374
Nsg375
I00
sg376
Nsg377
I00
sg378
I00
sbag367
(g368
g369
S'No data.'
p2552
tp2553
Rp2554
(dp2555
g374
Nsg375
I00
sg376
Nsg377
I00
sg378
I00
sbag367
(g368
g369
S'No data.'
p2556
tp2557
Rp2558
(dp2559
g374
Nsg375
I00
sg376
Nsg377
I00
sg378
I00
sbag367
(g368
g369
S'No data.'
p2560
tp2561
Rp2562
(dp2563
g374
Nsg375
I00
sg376
Nsg377
I00
sg378
I00
sbag367
(g368
g369
S'No data.'
p2564
tp2565
Rp2566
(dp2567
g374
Nsg375
I00
sg376
Nsg377
I00
sg378
I00
sbag367
(g368
g369
S'No data.'
p2568
tp2569
Rp2570
(dp2571
g374
Nsg375
I00
sg376
Nsg377
I00
sg378
I00
sbag367
(g368
g369
S'No data.'
p2572
tp2573
Rp2574
(dp2575
g374
Nsg375
I00
sg376
Nsg377
I00
sg378
I00
sbag367
(g368
g369
S'No data.'
p2576
tp2577
Rp2578
(dp2579
g374
Nsg375
I00
sg376
Nsg377
I00
sg378
I00
sbag367
(g368
g369
S'No data.'
p2580
tp2581
Rp2582
(dp2583
g374
Nsg375
I00
sg376
Nsg377
I00
sg378
I00
sbag367
(g368
g369
S'No data.'
p2584
tp2585
Rp2586
(dp2587
g374
Nsg375
I00
sg376
Nsg377
I00
sg378
I00
sbag367
(g368
g369
S'No data.'
p2588
tp2589
Rp2590
(dp2591
g374
Nsg375
I00
sg376
Nsg377
I00
sg378
I00
sbag367
(g368
g369
S'No data.'
p2592
tp2593
Rp2594
(dp2595
g374
Nsg375
I00
sg376
Nsg377
I00
sg378
I00
sbag367
(g368
g369
S'No data.'
p2596
tp2597
Rp2598
(dp2599
g374
Nsg375
I00
sg376
Nsg377
I00
sg378
I00
sbag367
(g368
g369
S'No data.'
p2600
tp2601
Rp2602
(dp2603
g374
Nsg375
I00
sg376
Nsg377
I00
sg378
I00
sbag367
(g368
g369
S'No data.'
p2604
tp2605
Rp2606
(dp2607
g374
Nsg375
I00
sg376
Nsg377
I00
sg378
I00
sbag367
(g368
g369
S'No data.'
p2608
tp2609
Rp2610
(dp2611
g374
Nsg375
I00
sg376
Nsg377
I00
sg378
I00
sbag367
(g368
g369
S'No data.'
p2612
tp2613
Rp2614
(dp2615
g374
Nsg375
I00
sg376
Nsg377
I00
sg378
I00
sbag367
(g368
g369
S'No data.'
p2616
tp2617
Rp2618
(dp2619
g374
Nsg375
I00
sg376
Nsg377
I00
sg378
I00
sbag367
(g368
g369
S'No data.'
p2620
tp2621
Rp2622
(dp2623
g374
Nsg375
I00
sg376
Nsg377
I00
sg378
I00
sbag367
(g368
g369
S'No data.'
p2624
tp2625
Rp2626
(dp2627
g374
Nsg375
I00
sg376
Nsg377
I00
sg378
I00
sbag367
(g368
g369
S'No data.'
p2628
tp2629
Rp2630
(dp2631
g374
Nsg375
I00
sg376
Nsg377
I00
sg378
I00
sbag367
(g368
g369
S'No data.'
p2632
tp2633
Rp2634
(dp2635
g374
Nsg375
I00
sg376
Nsg377
I00
sg378
I00
sbag367
(g368
g369
S'No data.'
p2636
tp2637
Rp2638
(dp2639
g374
Nsg375
I00
sg376
Nsg377
I00
sg378
I00
sbag367
(g368
g369
S'No data.'
p2640
tp2641
Rp2642
(dp2643
g374
Nsg375
I00
sg376
Nsg377
I00
sg378
I00
sbag367
(g368
g369
S'No data.'
p2644
tp2645
Rp2646
(dp2647
g374
Nsg375
I00
sg376
Nsg377
I00
sg378
I00
sbag367
(g368
g369
S'No data.'
p2648
tp2649
Rp2650
(dp2651
g374
Nsg375
I00
sg376
Nsg377
I00
sg378
I00
sbag367
(g368
g369
S'No data.'
p2652
tp2653
Rp2654
(dp2655
g374
Nsg375
I00
sg376
Nsg377
I00
sg378
I00
sbag367
(g368
g369
S'No data.'
p2656
tp2657
Rp2658
(dp2659
g374
Nsg375
I00
sg376
Nsg377
I00
sg378
I00
sbag367
(g368
g369
S'No data.'
p2660
tp2661
Rp2662
(dp2663
g374
Nsg375
I00
sg376
Nsg377
I00
sg378
I00
sbag367
(g368
g369
S'No data.'
p2664
tp2665
Rp2666
(dp2667
g374
Nsg375
I00
sg376
Nsg377
I00
sg378
I00
sbag367
(g368
g369
S'No data.'
p2668
tp2669
Rp2670
(dp2671
g374
Nsg375
I00
sg376
Nsg377
I00
sg378
I00
sbag367
(g368
g369
S'No data.'
p2672
tp2673
Rp2674
(dp2675
g374
Nsg375
I00
sg376
Nsg377
I00
sg378
I00
sbag367
(g368
g369
S'No data.'
p2676
tp2677
Rp2678
(dp2679
g374
Nsg375
I00
sg376
Nsg377
I00
sg378
I00
sbag367
(g368
g369
S'No data.'
p2680
tp2681
Rp2682
(dp2683
g374
Nsg375
I00
sg376
Nsg377
I00
sg378
I00
sbag367
(g368
g369
S'No data.'
p2684
tp2685
Rp2686
(dp2687
g374
Nsg375
I00
sg376
Nsg377
I00
sg378
I00
sbag367
(g368
g369
S'No data.'
p2688
tp2689
Rp2690
(dp2691
g374
Nsg375
I00
sg376
Nsg377
I00
sg378
I00
sbag367
(g368
g369
S'No data.'
p2692
tp2693
Rp2694
(dp2695
g374
Nsg375
I00
sg376
Nsg377
I00
sg378
I00
sbag367
(g368
g369
S'No data.'
p2696
tp2697
Rp2698
(dp2699
g374
Nsg375
I00
sg376
Nsg377
I00
sg378
I00
sbag367
(g368
g369
S'No data.'
p2700
tp2701
Rp2702
(dp2703
g374
Nsg375
I00
sg376
Nsg377
I00
sg378
I00
sbag367
(g368
g369
S'No data.'
p2704
tp2705
Rp2706
(dp2707
g374
Nsg375
I00
sg376
Nsg377
I00
sg378
I00
sbag367
(g368
g369
S'No data.'
p2708
tp2709
Rp2710
(dp2711
g374
Nsg375
I00
sg376
Nsg377
I00
sg378
I00
sbag367
(g368
g369
S'No data.'
p2712
tp2713
Rp2714
(dp2715
g374
Nsg375
I00
sg376
Nsg377
I00
sg378
I00
sbag367
(g368
g369
S'No data.'
p2716
tp2717
Rp2718
(dp2719
g374
Nsg375
I00
sg376
Nsg377
I00
sg378
I00
sbag367
(g368
g369
S'No data.'
p2720
tp2721
Rp2722
(dp2723
g374
Nsg375
I00
sg376
Nsg377
I00
sg378
I00
sbag367
(g368
g369
S'No data.'
p2724
tp2725
Rp2726
(dp2727
g374
Nsg375
I00
sg376
Nsg377
I00
sg378
I00
sbag367
(g368
g369
S'No data.'
p2728
tp2729
Rp2730
(dp2731
g374
Nsg375
I00
sg376
Nsg377
I00
sg378
I00
sbag367
(g368
g369
S'No data.'
p2732
tp2733
Rp2734
(dp2735
g374
Nsg375
I00
sg376
Nsg377
I00
sg378
I00
sbag367
(g368
g369
S'No data.'
p2736
tp2737
Rp2738
(dp2739
g374
Nsg375
I00
sg376
Nsg377
I00
sg378
I00
sbag367
(g368
g369
S'No data.'
p2740
tp2741
Rp2742
(dp2743
g374
Nsg375
I00
sg376
Nsg377
I00
sg378
I00
sbag367
(g368
g369
S'No data.'
p2744
tp2745
Rp2746
(dp2747
g374
Nsg375
I00
sg376
Nsg377
I00
sg378
I00
sbag367
(g368
g369
S'No data.'
p2748
tp2749
Rp2750
(dp2751
g374
Nsg375
I00
sg376
Nsg377
I00
sg378
I00
sbag367
(g368
g369
S'No data.'
p2752
tp2753
Rp2754
(dp2755
g374
Nsg375
I00
sg376
Nsg377
I00
sg378
I00
sbag367
(g368
g369
S'No data.'
p2756
tp2757
Rp2758
(dp2759
g374
Nsg375
I00
sg376
Nsg377
I00
sg378
I00
sbag367
(g368
g369
S'No data.'
p2760
tp2761
Rp2762
(dp2763
g374
Nsg375
I00
sg376
Nsg377
I00
sg378
I00
sbag367
(g368
g369
S'No data.'
p2764
tp2765
Rp2766
(dp2767
g374
Nsg375
I00
sg376
Nsg377
I00
sg378
I00
sbag367
(g368
g369
S'No data.'
p2768
tp2769
Rp2770
(dp2771
g374
Nsg375
I00
sg376
Nsg377
I00
sg378
I00
sbag367
(g368
g369
S'No data.'
p2772
tp2773
Rp2774
(dp2775
g374
Nsg375
I00
sg376
Nsg377
I00
sg378
I00
sbag367
(g368
g369
S'No data.'
p2776
tp2777
Rp2778
(dp2779
g374
Nsg375
I00
sg376
Nsg377
I00
sg378
I00
sbag367
(g368
g369
S'No data.'
p2780
tp2781
Rp2782
(dp2783
g374
Nsg375
I00
sg376
Nsg377
I00
sg378
I00
sbag367
(g368
g369
S'No data.'
p2784
tp2785
Rp2786
(dp2787
g374
Nsg375
I00
sg376
Nsg377
I00
sg378
I00
sbag367
(g368
g369
S'No data.'
p2788
tp2789
Rp2790
(dp2791
g374
Nsg375
I00
sg376
Nsg377
I00
sg378
I00
sbag367
(g368
g369
S'No data.'
p2792
tp2793
Rp2794
(dp2795
g374
Nsg375
I00
sg376
Nsg377
I00
sg378
I00
sbag367
(g368
g369
S'No data.'
p2796
tp2797
Rp2798
(dp2799
g374
Nsg375
I00
sg376
Nsg377
I00
sg378
I00
sbag367
(g368
g369
S'No data.'
p2800
tp2801
Rp2802
(dp2803
g374
Nsg375
I00
sg376
Nsg377
I00
sg378
I00
sbag367
(g368
g369
S'No data.'
p2804
tp2805
Rp2806
(dp2807
g374
Nsg375
I00
sg376
Nsg377
I00
sg378
I00
sbag367
(g368
g369
S'No data.'
p2808
tp2809
Rp2810
(dp2811
g374
Nsg375
I00
sg376
Nsg377
I00
sg378
I00
sbag367
(g368
g369
S'No data.'
p2812
tp2813
Rp2814
(dp2815
g374
Nsg375
I00
sg376
Nsg377
I00
sg378
I00
sbag367
(g368
g369
S'No data.'
p2816
tp2817
Rp2818
(dp2819
g374
Nsg375
I00
sg376
Nsg377
I00
sg378
I00
sbag367
(g368
g369
S'No data.'
p2820
tp2821
Rp2822
(dp2823
g374
Nsg375
I00
sg376
Nsg377
I00
sg378
I00
sbag367
(g368
g369
S'No data.'
p2824
tp2825
Rp2826
(dp2827
g374
Nsg375
I00
sg376
Nsg377
I00
sg378
I00
sbag367
(g368
g369
S'No data.'
p2828
tp2829
Rp2830
(dp2831
g374
Nsg375
I00
sg376
Nsg377
I00
sg378
I00
sbag367
(g368
g369
S'No data.'
p2832
tp2833
Rp2834
(dp2835
g374
Nsg375
I00
sg376
Nsg377
I00
sg378
I00
sbag367
(g368
g369
S'No data.'
p2836
tp2837
Rp2838
(dp2839
g374
Nsg375
I00
sg376
Nsg377
I00
sg378
I00
sbag367
(g368
g369
S'No data.'
p2840
tp2841
Rp2842
(dp2843
g374
Nsg375
I00
sg376
Nsg377
I00
sg378
I00
sbag367
(g368
g369
S'No data.'
p2844
tp2845
Rp2846
(dp2847
g374
Nsg375
I00
sg376
Nsg377
I00
sg378
I00
sbag367
(g368
g369
S'No data.'
p2848
tp2849
Rp2850
(dp2851
g374
Nsg375
I00
sg376
Nsg377
I00
sg378
I00
sbag367
(g368
g369
S'No data.'
p2852
tp2853
Rp2854
(dp2855
g374
Nsg375
I00
sg376
Nsg377
I00
sg378
I00
sbag367
(g368
g369
S'No data.'
p2856
tp2857
Rp2858
(dp2859
g374
Nsg375
I00
sg376
Nsg377
I00
sg378
I00
sbag367
(g368
g369
S'No data.'
p2860
tp2861
Rp2862
(dp2863
g374
Nsg375
I00
sg376
Nsg377
I00
sg378
I00
sbag367
(g368
g369
S'No data.'
p2864
tp2865
Rp2866
(dp2867
g374
Nsg375
I00
sg376
Nsg377
I00
sg378
I00
sbag367
(g368
g369
S'No data.'
p2868
tp2869
Rp2870
(dp2871
g374
Nsg375
I00
sg376
Nsg377
I00
sg378
I00
sbag367
(g368
g369
S'No data.'
p2872
tp2873
Rp2874
(dp2875
g374
Nsg375
I00
sg376
Nsg377
I00
sg378
I00
sbag367
(g368
g369
S'No data.'
p2876
tp2877
Rp2878
(dp2879
g374
Nsg375
I00
sg376
Nsg377
I00
sg378
I00
sbag367
(g368
g369
S'No data.'
p2880
tp2881
Rp2882
(dp2883
g374
Nsg375
I00
sg376
Nsg377
I00
sg378
I00
sbag367
(g368
g369
S'No data.'
p2884
tp2885
Rp2886
(dp2887
g374
Nsg375
I00
sg376
Nsg377
I00
sg378
I00
sbag367
(g368
g369
S'No data.'
p2888
tp2889
Rp2890
(dp2891
g374
Nsg375
I00
sg376
Nsg377
I00
sg378
I00
sbag367
(g368
g369
S'No data.'
p2892
tp2893
Rp2894
(dp2895
g374
Nsg375
I00
sg376
Nsg377
I00
sg378
I00
sbag367
(g368
g369
S'No data.'
p2896
tp2897
Rp2898
(dp2899
g374
Nsg375
I00
sg376
Nsg377
I00
sg378
I00
sbag367
(g368
g369
S'No data.'
p2900
tp2901
Rp2902
(dp2903
g374
Nsg375
I00
sg376
Nsg377
I00
sg378
I00
sbag367
(g368
g369
S'No data.'
p2904
tp2905
Rp2906
(dp2907
g374
Nsg375
I00
sg376
Nsg377
I00
sg378
I00
sbag367
(g368
g369
S'No data.'
p2908
tp2909
Rp2910
(dp2911
g374
Nsg375
I00
sg376
Nsg377
I00
sg378
I00
sbag367
(g368
g369
S'No data.'
p2912
tp2913
Rp2914
(dp2915
g374
Nsg375
I00
sg376
Nsg377
I00
sg378
I00
sbag367
(g368
g369
S'No data.'
p2916
tp2917
Rp2918
(dp2919
g374
Nsg375
I00
sg376
Nsg377
I00
sg378
I00
sbag367
(g368
g369
S'No data.'
p2920
tp2921
Rp2922
(dp2923
g374
Nsg375
I00
sg376
Nsg377
I00
sg378
I00
sbag367
(g368
g369
S'No data.'
p2924
tp2925
Rp2926
(dp2927
g374
Nsg375
I00
sg376
Nsg377
I00
sg378
I00
sbag367
(g368
g369
S'No data.'
p2928
tp2929
Rp2930
(dp2931
g374
Nsg375
I00
sg376
Nsg377
I00
sg378
I00
sbag367
(g368
g369
S'No data.'
p2932
tp2933
Rp2934
(dp2935
g374
Nsg375
I00
sg376
Nsg377
I00
sg378
I00
sbag367
(g368
g369
S'No data.'
p2936
tp2937
Rp2938
(dp2939
g374
Nsg375
I00
sg376
Nsg377
I00
sg378
I00
sbag367
(g368
g369
S'No data.'
p2940
tp2941
Rp2942
(dp2943
g374
Nsg375
I00
sg376
Nsg377
I00
sg378
I00
sbag367
(g368
g369
S'No data.'
p2944
tp2945
Rp2946
(dp2947
g374
Nsg375
I00
sg376
Nsg377
I00
sg378
I00
sbag367
(g368
g369
S'No data.'
p2948
tp2949
Rp2950
(dp2951
g374
Nsg375
I00
sg376
Nsg377
I00
sg378
I00
sbag367
(g368
g369
S'No data.'
p2952
tp2953
Rp2954
(dp2955
g374
Nsg375
I00
sg376
Nsg377
I00
sg378
I00
sbag367
(g368
g369
S'No data.'
p2956
tp2957
Rp2958
(dp2959
g374
Nsg375
I00
sg376
Nsg377
I00
sg378
I00
sbag367
(g368
g369
S'No data.'
p2960
tp2961
Rp2962
(dp2963
g374
Nsg375
I00
sg376
Nsg377
I00
sg378
I00
sbag367
(g368
g369
S'No data.'
p2964
tp2965
Rp2966
(dp2967
g374
Nsg375
I00
sg376
Nsg377
I00
sg378
I00
sbag367
(g368
g369
S'No data.'
p2968
tp2969
Rp2970
(dp2971
g374
Nsg375
I00
sg376
Nsg377
I00
sg378
I00
sbag367
(g368
g369
S'No data.'
p2972
tp2973
Rp2974
(dp2975
g374
Nsg375
I00
sg376
Nsg377
I00
sg378
I00
sbag367
(g368
g369
S'No data.'
p2976
tp2977
Rp2978
(dp2979
g374
Nsg375
I00
sg376
Nsg377
I00
sg378
I00
sbag367
(g368
g369
S'No data.'
p2980
tp2981
Rp2982
(dp2983
g374
Nsg375
I00
sg376
Nsg377
I00
sg378
I00
sbag367
(g368
g369
S'No data.'
p2984
tp2985
Rp2986
(dp2987
g374
Nsg375
I00
sg376
Nsg377
I00
sg378
I00
sbag367
(g368
g369
S'No data.'
p2988
tp2989
Rp2990
(dp2991
g374
Nsg375
I00
sg376
Nsg377
I00
sg378
I00
sbag367
(g368
g369
S'No data.'
p2992
tp2993
Rp2994
(dp2995
g374
Nsg375
I00
sg376
Nsg377
I00
sg378
I00
sbag367
(g368
g369
S'No data.'
p2996
tp2997
Rp2998
(dp2999
g374
Nsg375
I00
sg376
Nsg377
I00
sg378
I00
sbag367
(g368
g369
S'No data.'
p3000
tp3001
Rp3002
(dp3003
g374
Nsg375
I00
sg376
Nsg377
I00
sg378
I00
sbag367
(g368
g369
S'No data.'
p3004
tp3005
Rp3006
(dp3007
g374
Nsg375
I00
sg376
Nsg377
I00
sg378
I00
sbag367
(g368
g369
S'No data.'
p3008
tp3009
Rp3010
(dp3011
g374
Nsg375
I00
sg376
Nsg377
I00
sg378
I00
sbag367
(g368
g369
S'No data.'
p3012
tp3013
Rp3014
(dp3015
g374
Nsg375
I00
sg376
Nsg377
I00
sg378
I00
sbag367
(g368
g369
S'No data.'
p3016
tp3017
Rp3018
(dp3019
g374
Nsg375
I00
sg376
Nsg377
I00
sg378
I00
sbag367
(g368
g369
S'No data.'
p3020
tp3021
Rp3022
(dp3023
g374
Nsg375
I00
sg376
Nsg377
I00
sg378
I00
sbag367
(g368
g369
S'No data.'
p3024
tp3025
Rp3026
(dp3027
g374
Nsg375
I00
sg376
Nsg377
I00
sg378
I00
sbag367
(g368
g369
S'No data.'
p3028
tp3029
Rp3030
(dp3031
g374
Nsg375
I00
sg376
Nsg377
I00
sg378
I00
sbag367
(g368
g369
S'No data.'
p3032
tp3033
Rp3034
(dp3035
g374
Nsg375
I00
sg376
Nsg377
I00
sg378
I00
sbag367
(g368
g369
S'No data.'
p3036
tp3037
Rp3038
(dp3039
g374
Nsg375
I00
sg376
Nsg377
I00
sg378
I00
sbag367
(g368
g369
S'No data.'
p3040
tp3041
Rp3042
(dp3043
g374
Nsg375
I00
sg376
Nsg377
I00
sg378
I00
sbag367
(g368
g369
S'No data.'
p3044
tp3045
Rp3046
(dp3047
g374
Nsg375
I00
sg376
Nsg377
I00
sg378
I00
sbag367
(g368
g369
S'No data.'
p3048
tp3049
Rp3050
(dp3051
g374
Nsg375
I00
sg376
Nsg377
I00
sg378
I00
sbag367
(g368
g369
S'No data.'
p3052
tp3053
Rp3054
(dp3055
g374
Nsg375
I00
sg376
Nsg377
I00
sg378
I00
sbag367
(g368
g369
S'No data.'
p3056
tp3057
Rp3058
(dp3059
g374
Nsg375
I00
sg376
Nsg377
I00
sg378
I00
sbag367
(g368
g369
S'No data.'
p3060
tp3061
Rp3062
(dp3063
g374
Nsg375
I00
sg376
Nsg377
I00
sg378
I00
sbag367
(g368
g369
S'No data.'
p3064
tp3065
Rp3066
(dp3067
g374
Nsg375
I00
sg376
Nsg377
I00
sg378
I00
sbag367
(g368
g369
S'No data.'
p3068
tp3069
Rp3070
(dp3071
g374
Nsg375
I00
sg376
Nsg377
I00
sg378
I00
sbag367
(g368
g369
S'No data.'
p3072
tp3073
Rp3074
(dp3075
g374
Nsg375
I00
sg376
Nsg377
I00
sg378
I00
sbag367
(g368
g369
S'No data.'
p3076
tp3077
Rp3078
(dp3079
g374
Nsg375
I00
sg376
Nsg377
I00
sg378
I00
sbag367
(g368
g369
S'No data.'
p3080
tp3081
Rp3082
(dp3083
g374
Nsg375
I00
sg376
Nsg377
I00
sg378
I00
sbag367
(g368
g369
S'No data.'
p3084
tp3085
Rp3086
(dp3087
g374
Nsg375
I00
sg376
Nsg377
I00
sg378
I00
sbag367
(g368
g369
S'No data.'
p3088
tp3089
Rp3090
(dp3091
g374
Nsg375
I00
sg376
Nsg377
I00
sg378
I00
sbag367
(g368
g369
S'No data.'
p3092
tp3093
Rp3094
(dp3095
g374
Nsg375
I00
sg376
Nsg377
I00
sg378
I00
sbag367
(g368
g369
S'No data.'
p3096
tp3097
Rp3098
(dp3099
g374
Nsg375
I00
sg376
Nsg377
I00
sg378
I00
sbag367
(g368
g369
S'No data.'
p3100
tp3101
Rp3102
(dp3103
g374
Nsg375
I00
sg376
Nsg377
I00
sg378
I00
sbag367
(g368
g369
S'No data.'
p3104
tp3105
Rp3106
(dp3107
g374
Nsg375
I00
sg376
Nsg377
I00
sg378
I00
sbag367
(g368
g369
S'No data.'
p3108
tp3109
Rp3110
(dp3111
g374
Nsg375
I00
sg376
Nsg377
I00
sg378
I00
sbag367
(g368
g369
S'No data.'
p3112
tp3113
Rp3114
(dp3115
g374
Nsg375
I00
sg376
Nsg377
I00
sg378
I00
sbag367
(g368
g369
S'No data.'
p3116
tp3117
Rp3118
(dp3119
g374
Nsg375
I00
sg376
Nsg377
I00
sg378
I00
sbag367
(g368
g369
S'No data.'
p3120
tp3121
Rp3122
(dp3123
g374
Nsg375
I00
sg376
Nsg377
I00
sg378
I00
sbag367
(g368
g369
S'No data.'
p3124
tp3125
Rp3126
(dp3127
g374
Nsg375
I00
sg376
Nsg377
I00
sg378
I00
sbag367
(g368
g369
S'No data.'
p3128
tp3129
Rp3130
(dp3131
g374
Nsg375
I00
sg376
Nsg377
I00
sg378
I00
sbag367
(g368
g369
S'No data.'
p3132
tp3133
Rp3134
(dp3135
g374
Nsg375
I00
sg376
Nsg377
I00
sg378
I00
sbag367
(g368
g369
S'No data.'
p3136
tp3137
Rp3138
(dp3139
g374
Nsg375
I00
sg376
Nsg377
I00
sg378
I00
sbag367
(g368
g369
S'No data.'
p3140
tp3141
Rp3142
(dp3143
g374
Nsg375
I00
sg376
Nsg377
I00
sg378
I00
sbag367
(g368
g369
S'No data.'
p3144
tp3145
Rp3146
(dp3147
g374
Nsg375
I00
sg376
Nsg377
I00
sg378
I00
sbag367
(g368
g369
S'No data.'
p3148
tp3149
Rp3150
(dp3151
g374
Nsg375
I00
sg376
Nsg377
I00
sg378
I00
sbag367
(g368
g369
S'No data.'
p3152
tp3153
Rp3154
(dp3155
g374
Nsg375
I00
sg376
Nsg377
I00
sg378
I00
sbag367
(g368
g369
S'No data.'
p3156
tp3157
Rp3158
(dp3159
g374
Nsg375
I00
sg376
Nsg377
I00
sg378
I00
sbag367
(g368
g369
S'No data.'
p3160
tp3161
Rp3162
(dp3163
g374
Nsg375
I00
sg376
Nsg377
I00
sg378
I00
sbag367
(g368
g369
S'No data.'
p3164
tp3165
Rp3166
(dp3167
g374
Nsg375
I00
sg376
Nsg377
I00
sg378
I00
sbag367
(g368
g369
S'No data.'
p3168
tp3169
Rp3170
(dp3171
g374
Nsg375
I00
sg376
Nsg377
I00
sg378
I00
sbag367
(g368
g369
S'No data.'
p3172
tp3173
Rp3174
(dp3175
g374
Nsg375
I00
sg376
Nsg377
I00
sg378
I00
sbag367
(g368
g369
S'No data.'
p3176
tp3177
Rp3178
(dp3179
g374
Nsg375
I00
sg376
Nsg377
I00
sg378
I00
sbag367
(g368
g369
S'No data.'
p3180
tp3181
Rp3182
(dp3183
g374
Nsg375
I00
sg376
Nsg377
I00
sg378
I00
sbag367
(g368
g369
S'No data.'
p3184
tp3185
Rp3186
(dp3187
g374
Nsg375
I00
sg376
Nsg377
I00
sg378
I00
sbag367
(g368
g369
S'No data.'
p3188
tp3189
Rp3190
(dp3191
g374
Nsg375
I00
sg376
Nsg377
I00
sg378
I00
sbag367
(g368
g369
S'No data.'
p3192
tp3193
Rp3194
(dp3195
g374
Nsg375
I00
sg376
Nsg377
I00
sg378
I00
sbag367
(g368
g369
S'No data.'
p3196
tp3197
Rp3198
(dp3199
g374
Nsg375
I00
sg376
Nsg377
I00
sg378
I00
sbag367
(g368
g369
S'No data.'
p3200
tp3201
Rp3202
(dp3203
g374
Nsg375
I00
sg376
Nsg377
I00
sg378
I00
sbag367
(g368
g369
S'No data.'
p3204
tp3205
Rp3206
(dp3207
g374
Nsg375
I00
sg376
Nsg377
I00
sg378
I00
sbag367
(g368
g369
S'No data.'
p3208
tp3209
Rp3210
(dp3211
g374
Nsg375
I00
sg376
Nsg377
I00
sg378
I00
sbag367
(g368
g369
S'No data.'
p3212
tp3213
Rp3214
(dp3215
g374
Nsg375
I00
sg376
Nsg377
I00
sg378
I00
sbag367
(g368
g369
S'No data.'
p3216
tp3217
Rp3218
(dp3219
g374
Nsg375
I00
sg376
Nsg377
I00
sg378
I00
sbag367
(g368
g369
S'No data.'
p3220
tp3221
Rp3222
(dp3223
g374
Nsg375
I00
sg376
Nsg377
I00
sg378
I00
sbag367
(g368
g369
S'No data.'
p3224
tp3225
Rp3226
(dp3227
g374
Nsg375
I00
sg376
Nsg377
I00
sg378
I00
sbag367
(g368
g369
S'No data.'
p3228
tp3229
Rp3230
(dp3231
g374
Nsg375
I00
sg376
Nsg377
I00
sg378
I00
sbag367
(g368
g369
S'No data.'
p3232
tp3233
Rp3234
(dp3235
g374
Nsg375
I00
sg376
Nsg377
I00
sg378
I00
sbag367
(g368
g369
S'No data.'
p3236
tp3237
Rp3238
(dp3239
g374
Nsg375
I00
sg376
Nsg377
I00
sg378
I00
sbag367
(g368
g369
S'No data.'
p3240
tp3241
Rp3242
(dp3243
g374
Nsg375
I00
sg376
Nsg377
I00
sg378
I00
sbag367
(g368
g369
S'No data.'
p3244
tp3245
Rp3246
(dp3247
g374
Nsg375
I00
sg376
Nsg377
I00
sg378
I00
sbag367
(g368
g369
S'No data.'
p3248
tp3249
Rp3250
(dp3251
g374
Nsg375
I00
sg376
Nsg377
I00
sg378
I00
sbag367
(g368
g369
S'No data.'
p3252
tp3253
Rp3254
(dp3255
g374
Nsg375
I00
sg376
Nsg377
I00
sg378
I00
sbag367
(g368
g369
S'No data.'
p3256
tp3257
Rp3258
(dp3259
g374
Nsg375
I00
sg376
Nsg377
I00
sg378
I00
sbag367
(g368
g369
S'No data.'
p3260
tp3261
Rp3262
(dp3263
g374
Nsg375
I00
sg376
Nsg377
I00
sg378
I00
sbag367
(g368
g369
S'No data.'
p3264
tp3265
Rp3266
(dp3267
g374
Nsg375
I00
sg376
Nsg377
I00
sg378
I00
sbag367
(g368
g369
S'No data.'
p3268
tp3269
Rp3270
(dp3271
g374
Nsg375
I00
sg376
Nsg377
I00
sg378
I00
sbag367
(g368
g369
S'No data.'
p3272
tp3273
Rp3274
(dp3275
g374
Nsg375
I00
sg376
Nsg377
I00
sg378
I00
sbag367
(g368
g369
S'No data.'
p3276
tp3277
Rp3278
(dp3279
g374
Nsg375
I00
sg376
Nsg377
I00
sg378
I00
sbag367
(g368
g369
S'No data.'
p3280
tp3281
Rp3282
(dp3283
g374
Nsg375
I00
sg376
Nsg377
I00
sg378
I00
sbag367
(g368
g369
S'No data.'
p3284
tp3285
Rp3286
(dp3287
g374
Nsg375
I00
sg376
Nsg377
I00
sg378
I00
sbag367
(g368
g369
S'No data.'
p3288
tp3289
Rp3290
(dp3291
g374
Nsg375
I00
sg376
Nsg377
I00
sg378
I00
sbag367
(g368
g369
S'No data.'
p3292
tp3293
Rp3294
(dp3295
g374
Nsg375
I00
sg376
Nsg377
I00
sg378
I00
sbatp3296
.